

Microchip MPLAB XC8 Assembler V2.05 build -831301201 
                                                                                               Sun Jun 20 13:34:40 2021

Microchip MPLAB XC8 C Compiler v2.05 (Free license) build 20181220022703 Og1 
     1                           	processor	16F1614
     2                           	opt	pw 120
     3                           	opt	flic
     4                           	psect	cinit,global,class=CODE,merge=1,delta=2
     5                           	psect	text0,local,class=CODE,merge=1,delta=2
     6                           	psect	bssCOMMON,global,class=COMMON,space=1,delta=1
     7                           	psect	clrtext,global,class=CODE,delta=2
     8                           	psect	cstackCOMMON,global,class=COMMON,space=1,delta=1
     9                           	psect	cstackBANK0,global,class=BANK0,space=1,delta=1
    10                           	psect	maintext,global,class=CODE,merge=1,split=1,delta=2
    11                           	psect	text1,local,class=CODE,merge=1,delta=2
    12                           	psect	text2,local,class=CODE,merge=1,delta=2
    13                           	psect	text3,local,class=CODE,merge=1,delta=2
    14                           	psect	intentry,global,class=CODE,delta=2
    15                           	psect	text5,local,class=CODE,merge=1,delta=2
    16                           	psect	text6,local,class=CODE,merge=1,delta=2
    17                           	psect	text7,local,class=CODE,merge=1,delta=2
    18                           	psect	text8,local,class=CODE,merge=1,delta=2
    19                           	psect	text9,local,class=CODE,merge=1,delta=2
    20                           	dabs	1,0x320,16
    21                           	dabs	1,0x2A0,80
    22                           	dabs	1,0x220,80
    23                           	dabs	1,0x1A0,80
    24                           	dabs	1,0x20F0,0,___SSP1_I2C_slave_buffer_data
    25                           	dabs	1,0x7E,2
    26  0000                     
    27                           ; Version 2.05
    28                           ; Generated 20/12/2018 GMT
    29                           ; 
    30                           ; Copyright © 2018, Microchip Technology Inc. and its subsidiaries ("Microchip")
    31                           ; All rights reserved.
    32                           ; 
    33                           ; This software is developed by Microchip Technology Inc. and its subsidiaries ("Microch
      +                          ip").
    34                           ; 
    35                           ; Redistribution and use in source and binary forms, with or without modification, are
    36                           ; permitted provided that the following conditions are met:
    37                           ; 
    38                           ;     1. Redistributions of source code must retain the above copyright notice, this lis
      +                          t of
    39                           ;        conditions and the following disclaimer.
    40                           ; 
    41                           ;     2. Redistributions in binary form must reproduce the above copyright notice, this 
      +                          list
    42                           ;        of conditions and the following disclaimer in the documentation and/or other
    43                           ;        materials provided with the distribution.
    44                           ; 
    45                           ;     3. Microchip's name may not be used to endorse or promote products derived from th
      +                          is
    46                           ;        software without specific prior written permission.
    47                           ; 
    48                           ; THIS SOFTWARE IS PROVIDED BY MICROCHIP "AS IS" AND ANY EXPRESS OR IMPLIED WARRANTIES,
    49                           ; INCLUDING, BUT NOT LIMITED TO, THE IMPLIED WARRANTIES OF MERCHANTABILITY AND FITNESS F
      +                          OR
    50                           ; PURPOSE ARE DISCLAIMED.  IN NO EVENT SHALL MICROCHIP BE LIABLE FOR ANY DIRECT, INDIREC
      +                          T,
    51                           ; INCIDENTAL, SPECIAL, EXEMPLARY, OR CONSEQUENTIAL DAMAGES (INCLUDING BUT NOT LIMITED TO
    52                           ; PROCUREMENT OF SUBSTITUTE GOODS OR SERVICES; LOSS OF USE, DATA OR PROFITS; OR BUSINESS
    53                           ; INTERRUPTION) HOWSOEVER CAUSED AND ON ANY THEORY OF LIABILITY, WHETHER IN CONTRACT, ST
      +                          RICT
    54                           ; LIABILITY, OR TORT (INCLUDING NEGLIGENCE OR OTHERWISE) ARISING IN ANY WAY OUT OF THE U
      +                          SE OF
    55                           ; THIS SOFTWARE, EVEN IF ADVISED OF THE POSSIBILITY OF SUCH DAMAGE.
    56                           ; 
    57                           ; 
    58                           ; Code-generator required, PIC16F1614 Definitions
    59                           ; 
    60                           ; SFR Addresses
    61  0000                     	;# 
    62  0001                     	;# 
    63  0002                     	;# 
    64  0003                     	;# 
    65  0004                     	;# 
    66  0005                     	;# 
    67  0006                     	;# 
    68  0007                     	;# 
    69  0008                     	;# 
    70  0009                     	;# 
    71  000A                     	;# 
    72  000B                     	;# 
    73  000C                     	;# 
    74  000E                     	;# 
    75  0010                     	;# 
    76  0011                     	;# 
    77  0012                     	;# 
    78  0013                     	;# 
    79  0014                     	;# 
    80  0015                     	;# 
    81  0016                     	;# 
    82  0016                     	;# 
    83  0017                     	;# 
    84  0018                     	;# 
    85  0019                     	;# 
    86  001A                     	;# 
    87  001A                     	;# 
    88  001B                     	;# 
    89  001B                     	;# 
    90  001C                     	;# 
    91  001D                     	;# 
    92  001E                     	;# 
    93  001F                     	;# 
    94  008C                     	;# 
    95  008E                     	;# 
    96  0090                     	;# 
    97  0091                     	;# 
    98  0092                     	;# 
    99  0093                     	;# 
   100  0094                     	;# 
   101  0095                     	;# 
   102  0096                     	;# 
   103  0098                     	;# 
   104  0099                     	;# 
   105  009A                     	;# 
   106  009B                     	;# 
   107  009B                     	;# 
   108  009C                     	;# 
   109  009D                     	;# 
   110  009E                     	;# 
   111  009F                     	;# 
   112  010C                     	;# 
   113  010E                     	;# 
   114  0111                     	;# 
   115  0112                     	;# 
   116  0113                     	;# 
   117  0114                     	;# 
   118  0115                     	;# 
   119  0116                     	;# 
   120  0117                     	;# 
   121  0118                     	;# 
   122  0119                     	;# 
   123  011C                     	;# 
   124  018C                     	;# 
   125  018E                     	;# 
   126  0191                     	;# 
   127  0191                     	;# 
   128  0192                     	;# 
   129  0193                     	;# 
   130  0193                     	;# 
   131  0194                     	;# 
   132  0195                     	;# 
   133  0196                     	;# 
   134  0197                     	;# 
   135  0199                     	;# 
   136  0199                     	;# 
   137  0199                     	;# 
   138  019A                     	;# 
   139  019A                     	;# 
   140  019A                     	;# 
   141  019B                     	;# 
   142  019B                     	;# 
   143  019B                     	;# 
   144  019B                     	;# 
   145  019B                     	;# 
   146  019C                     	;# 
   147  019C                     	;# 
   148  019C                     	;# 
   149  019D                     	;# 
   150  019D                     	;# 
   151  019D                     	;# 
   152  019E                     	;# 
   153  019E                     	;# 
   154  019E                     	;# 
   155  019F                     	;# 
   156  019F                     	;# 
   157  019F                     	;# 
   158  019F                     	;# 
   159  019F                     	;# 
   160  020C                     	;# 
   161  020E                     	;# 
   162  0211                     	;# 
   163  0211                     	;# 
   164  0212                     	;# 
   165  0212                     	;# 
   166  0213                     	;# 
   167  0213                     	;# 
   168  0214                     	;# 
   169  0214                     	;# 
   170  0215                     	;# 
   171  0215                     	;# 
   172  0215                     	;# 
   173  0215                     	;# 
   174  0216                     	;# 
   175  0216                     	;# 
   176  0217                     	;# 
   177  0217                     	;# 
   178  028C                     	;# 
   179  028E                     	;# 
   180  0291                     	;# 
   181  0291                     	;# 
   182  0292                     	;# 
   183  0293                     	;# 
   184  0294                     	;# 
   185  0298                     	;# 
   186  0298                     	;# 
   187  0299                     	;# 
   188  029A                     	;# 
   189  029B                     	;# 
   190  029E                     	;# 
   191  030C                     	;# 
   192  030E                     	;# 
   193  038C                     	;# 
   194  038E                     	;# 
   195  0391                     	;# 
   196  0392                     	;# 
   197  0393                     	;# 
   198  0397                     	;# 
   199  0398                     	;# 
   200  0399                     	;# 
   201  040E                     	;# 
   202  0413                     	;# 
   203  0413                     	;# 
   204  0414                     	;# 
   205  0414                     	;# 
   206  0415                     	;# 
   207  0416                     	;# 
   208  0417                     	;# 
   209  0418                     	;# 
   210  041A                     	;# 
   211  041A                     	;# 
   212  041B                     	;# 
   213  041B                     	;# 
   214  041C                     	;# 
   215  041D                     	;# 
   216  041E                     	;# 
   217  041F                     	;# 
   218  0493                     	;# 
   219  0494                     	;# 
   220  0495                     	;# 
   221  0496                     	;# 
   222  049A                     	;# 
   223  049B                     	;# 
   224  049C                     	;# 
   225  049D                     	;# 
   226  058C                     	;# 
   227  058C                     	;# 
   228  058D                     	;# 
   229  058E                     	;# 
   230  058E                     	;# 
   231  058F                     	;# 
   232  0590                     	;# 
   233  0590                     	;# 
   234  0591                     	;# 
   235  0592                     	;# 
   236  0592                     	;# 
   237  0593                     	;# 
   238  0594                     	;# 
   239  0594                     	;# 
   240  0595                     	;# 
   241  0596                     	;# 
   242  0596                     	;# 
   243  0597                     	;# 
   244  0598                     	;# 
   245  0599                     	;# 
   246  059A                     	;# 
   247  059B                     	;# 
   248  059B                     	;# 
   249  059C                     	;# 
   250  059D                     	;# 
   251  060C                     	;# 
   252  060C                     	;# 
   253  060D                     	;# 
   254  060E                     	;# 
   255  060F                     	;# 
   256  060F                     	;# 
   257  0610                     	;# 
   258  0611                     	;# 
   259  0612                     	;# 
   260  0613                     	;# 
   261  0614                     	;# 
   262  0617                     	;# 
   263  0617                     	;# 
   264  0618                     	;# 
   265  0619                     	;# 
   266  061A                     	;# 
   267  061A                     	;# 
   268  061B                     	;# 
   269  061C                     	;# 
   270  0691                     	;# 
   271  0692                     	;# 
   272  0693                     	;# 
   273  0694                     	;# 
   274  0695                     	;# 
   275  0696                     	;# 
   276  0697                     	;# 
   277  0699                     	;# 
   278  069A                     	;# 
   279  0711                     	;# 
   280  0712                     	;# 
   281  0713                     	;# 
   282  0714                     	;# 
   283  0715                     	;# 
   284  0718                     	;# 
   285  0718                     	;# 
   286  0719                     	;# 
   287  071A                     	;# 
   288  071A                     	;# 
   289  071B                     	;# 
   290  071C                     	;# 
   291  071D                     	;# 
   292  0791                     	;# 
   293  0791                     	;# 
   294  0792                     	;# 
   295  0793                     	;# 
   296  0793                     	;# 
   297  0794                     	;# 
   298  0795                     	;# 
   299  0795                     	;# 
   300  0796                     	;# 
   301  0797                     	;# 
   302  0797                     	;# 
   303  0798                     	;# 
   304  0799                     	;# 
   305  079A                     	;# 
   306  080C                     	;# 
   307  080C                     	;# 
   308  080D                     	;# 
   309  080E                     	;# 
   310  080E                     	;# 
   311  080F                     	;# 
   312  0810                     	;# 
   313  0810                     	;# 
   314  0811                     	;# 
   315  0812                     	;# 
   316  0812                     	;# 
   317  0813                     	;# 
   318  0814                     	;# 
   319  0815                     	;# 
   320  0816                     	;# 
   321  0817                     	;# 
   322  0818                     	;# 
   323  0819                     	;# 
   324  081A                     	;# 
   325  081A                     	;# 
   326  081B                     	;# 
   327  081C                     	;# 
   328  081C                     	;# 
   329  081D                     	;# 
   330  088C                     	;# 
   331  088D                     	;# 
   332  088E                     	;# 
   333  088F                     	;# 
   334  088F                     	;# 
   335  0890                     	;# 
   336  0891                     	;# 
   337  0892                     	;# 
   338  0893                     	;# 
   339  0893                     	;# 
   340  0894                     	;# 
   341  0895                     	;# 
   342  0896                     	;# 
   343  0897                     	;# 
   344  0897                     	;# 
   345  0898                     	;# 
   346  0899                     	;# 
   347  0D8C                     	;# 
   348  0D8C                     	;# 
   349  0D8D                     	;# 
   350  0D8E                     	;# 
   351  0D8F                     	;# 
   352  0D8F                     	;# 
   353  0D90                     	;# 
   354  0D91                     	;# 
   355  0D92                     	;# 
   356  0D92                     	;# 
   357  0D93                     	;# 
   358  0D94                     	;# 
   359  0D95                     	;# 
   360  0D95                     	;# 
   361  0D96                     	;# 
   362  0D97                     	;# 
   363  0D98                     	;# 
   364  0D99                     	;# 
   365  0D9A                     	;# 
   366  0D9B                     	;# 
   367  0D9C                     	;# 
   368  0D9D                     	;# 
   369  0D9E                     	;# 
   370  0D9E                     	;# 
   371  0D9F                     	;# 
   372  0DA0                     	;# 
   373  0DA1                     	;# 
   374  0DA1                     	;# 
   375  0DA2                     	;# 
   376  0DA3                     	;# 
   377  0DA4                     	;# 
   378  0DA4                     	;# 
   379  0DA5                     	;# 
   380  0DA6                     	;# 
   381  0DA7                     	;# 
   382  0DA7                     	;# 
   383  0DA8                     	;# 
   384  0DA9                     	;# 
   385  0DAA                     	;# 
   386  0DAB                     	;# 
   387  0DAC                     	;# 
   388  0DAD                     	;# 
   389  0DAE                     	;# 
   390  0DAF                     	;# 
   391  0E0F                     	;# 
   392  0E10                     	;# 
   393  0E11                     	;# 
   394  0E12                     	;# 
   395  0E13                     	;# 
   396  0E14                     	;# 
   397  0E15                     	;# 
   398  0E16                     	;# 
   399  0E17                     	;# 
   400  0E18                     	;# 
   401  0E19                     	;# 
   402  0E1A                     	;# 
   403  0E1B                     	;# 
   404  0E1C                     	;# 
   405  0E1D                     	;# 
   406  0E1E                     	;# 
   407  0E1F                     	;# 
   408  0E20                     	;# 
   409  0E21                     	;# 
   410  0E22                     	;# 
   411  0E23                     	;# 
   412  0E24                     	;# 
   413  0E25                     	;# 
   414  0E26                     	;# 
   415  0E27                     	;# 
   416  0E28                     	;# 
   417  0E29                     	;# 
   418  0E2A                     	;# 
   419  0E2B                     	;# 
   420  0E2C                     	;# 
   421  0E2D                     	;# 
   422  0E2E                     	;# 
   423  0E90                     	;# 
   424  0E91                     	;# 
   425  0E92                     	;# 
   426  0E94                     	;# 
   427  0E95                     	;# 
   428  0EA0                     	;# 
   429  0EA1                     	;# 
   430  0EA2                     	;# 
   431  0EA3                     	;# 
   432  0EA4                     	;# 
   433  0EA5                     	;# 
   434  0F0F                     	;# 
   435  0F10                     	;# 
   436  0F11                     	;# 
   437  0F12                     	;# 
   438  0F13                     	;# 
   439  0F14                     	;# 
   440  0F15                     	;# 
   441  0F16                     	;# 
   442  0F17                     	;# 
   443  0F18                     	;# 
   444  0F19                     	;# 
   445  0F1A                     	;# 
   446  0F1B                     	;# 
   447  0F1C                     	;# 
   448  0F1D                     	;# 
   449  0F1E                     	;# 
   450  0F1F                     	;# 
   451  0F20                     	;# 
   452  0F21                     	;# 
   453  0F22                     	;# 
   454  0F23                     	;# 
   455  0FE4                     	;# 
   456  0FE5                     	;# 
   457  0FE6                     	;# 
   458  0FE7                     	;# 
   459  0FE8                     	;# 
   460  0FE9                     	;# 
   461  0FEA                     	;# 
   462  0FEB                     	;# 
   463  0FED                     	;# 
   464  0FEE                     	;# 
   465  0FEF                     	;# 
   466  0000                     	;# 
   467  0001                     	;# 
   468  0002                     	;# 
   469  0003                     	;# 
   470  0004                     	;# 
   471  0005                     	;# 
   472  0006                     	;# 
   473  0007                     	;# 
   474  0008                     	;# 
   475  0009                     	;# 
   476  000A                     	;# 
   477  000B                     	;# 
   478  000C                     	;# 
   479  000E                     	;# 
   480  0010                     	;# 
   481  0011                     	;# 
   482  0012                     	;# 
   483  0013                     	;# 
   484  0014                     	;# 
   485  0015                     	;# 
   486  0016                     	;# 
   487  0016                     	;# 
   488  0017                     	;# 
   489  0018                     	;# 
   490  0019                     	;# 
   491  001A                     	;# 
   492  001A                     	;# 
   493  001B                     	;# 
   494  001B                     	;# 
   495  001C                     	;# 
   496  001D                     	;# 
   497  001E                     	;# 
   498  001F                     	;# 
   499  008C                     	;# 
   500  008E                     	;# 
   501  0090                     	;# 
   502  0091                     	;# 
   503  0092                     	;# 
   504  0093                     	;# 
   505  0094                     	;# 
   506  0095                     	;# 
   507  0096                     	;# 
   508  0098                     	;# 
   509  0099                     	;# 
   510  009A                     	;# 
   511  009B                     	;# 
   512  009B                     	;# 
   513  009C                     	;# 
   514  009D                     	;# 
   515  009E                     	;# 
   516  009F                     	;# 
   517  010C                     	;# 
   518  010E                     	;# 
   519  0111                     	;# 
   520  0112                     	;# 
   521  0113                     	;# 
   522  0114                     	;# 
   523  0115                     	;# 
   524  0116                     	;# 
   525  0117                     	;# 
   526  0118                     	;# 
   527  0119                     	;# 
   528  011C                     	;# 
   529  018C                     	;# 
   530  018E                     	;# 
   531  0191                     	;# 
   532  0191                     	;# 
   533  0192                     	;# 
   534  0193                     	;# 
   535  0193                     	;# 
   536  0194                     	;# 
   537  0195                     	;# 
   538  0196                     	;# 
   539  0197                     	;# 
   540  0199                     	;# 
   541  0199                     	;# 
   542  0199                     	;# 
   543  019A                     	;# 
   544  019A                     	;# 
   545  019A                     	;# 
   546  019B                     	;# 
   547  019B                     	;# 
   548  019B                     	;# 
   549  019B                     	;# 
   550  019B                     	;# 
   551  019C                     	;# 
   552  019C                     	;# 
   553  019C                     	;# 
   554  019D                     	;# 
   555  019D                     	;# 
   556  019D                     	;# 
   557  019E                     	;# 
   558  019E                     	;# 
   559  019E                     	;# 
   560  019F                     	;# 
   561  019F                     	;# 
   562  019F                     	;# 
   563  019F                     	;# 
   564  019F                     	;# 
   565  020C                     	;# 
   566  020E                     	;# 
   567  0211                     	;# 
   568  0211                     	;# 
   569  0212                     	;# 
   570  0212                     	;# 
   571  0213                     	;# 
   572  0213                     	;# 
   573  0214                     	;# 
   574  0214                     	;# 
   575  0215                     	;# 
   576  0215                     	;# 
   577  0215                     	;# 
   578  0215                     	;# 
   579  0216                     	;# 
   580  0216                     	;# 
   581  0217                     	;# 
   582  0217                     	;# 
   583  028C                     	;# 
   584  028E                     	;# 
   585  0291                     	;# 
   586  0291                     	;# 
   587  0292                     	;# 
   588  0293                     	;# 
   589  0294                     	;# 
   590  0298                     	;# 
   591  0298                     	;# 
   592  0299                     	;# 
   593  029A                     	;# 
   594  029B                     	;# 
   595  029E                     	;# 
   596  030C                     	;# 
   597  030E                     	;# 
   598  038C                     	;# 
   599  038E                     	;# 
   600  0391                     	;# 
   601  0392                     	;# 
   602  0393                     	;# 
   603  0397                     	;# 
   604  0398                     	;# 
   605  0399                     	;# 
   606  040E                     	;# 
   607  0413                     	;# 
   608  0413                     	;# 
   609  0414                     	;# 
   610  0414                     	;# 
   611  0415                     	;# 
   612  0416                     	;# 
   613  0417                     	;# 
   614  0418                     	;# 
   615  041A                     	;# 
   616  041A                     	;# 
   617  041B                     	;# 
   618  041B                     	;# 
   619  041C                     	;# 
   620  041D                     	;# 
   621  041E                     	;# 
   622  041F                     	;# 
   623  0493                     	;# 
   624  0494                     	;# 
   625  0495                     	;# 
   626  0496                     	;# 
   627  049A                     	;# 
   628  049B                     	;# 
   629  049C                     	;# 
   630  049D                     	;# 
   631  058C                     	;# 
   632  058C                     	;# 
   633  058D                     	;# 
   634  058E                     	;# 
   635  058E                     	;# 
   636  058F                     	;# 
   637  0590                     	;# 
   638  0590                     	;# 
   639  0591                     	;# 
   640  0592                     	;# 
   641  0592                     	;# 
   642  0593                     	;# 
   643  0594                     	;# 
   644  0594                     	;# 
   645  0595                     	;# 
   646  0596                     	;# 
   647  0596                     	;# 
   648  0597                     	;# 
   649  0598                     	;# 
   650  0599                     	;# 
   651  059A                     	;# 
   652  059B                     	;# 
   653  059B                     	;# 
   654  059C                     	;# 
   655  059D                     	;# 
   656  060C                     	;# 
   657  060C                     	;# 
   658  060D                     	;# 
   659  060E                     	;# 
   660  060F                     	;# 
   661  060F                     	;# 
   662  0610                     	;# 
   663  0611                     	;# 
   664  0612                     	;# 
   665  0613                     	;# 
   666  0614                     	;# 
   667  0617                     	;# 
   668  0617                     	;# 
   669  0618                     	;# 
   670  0619                     	;# 
   671  061A                     	;# 
   672  061A                     	;# 
   673  061B                     	;# 
   674  061C                     	;# 
   675  0691                     	;# 
   676  0692                     	;# 
   677  0693                     	;# 
   678  0694                     	;# 
   679  0695                     	;# 
   680  0696                     	;# 
   681  0697                     	;# 
   682  0699                     	;# 
   683  069A                     	;# 
   684  0711                     	;# 
   685  0712                     	;# 
   686  0713                     	;# 
   687  0714                     	;# 
   688  0715                     	;# 
   689  0718                     	;# 
   690  0718                     	;# 
   691  0719                     	;# 
   692  071A                     	;# 
   693  071A                     	;# 
   694  071B                     	;# 
   695  071C                     	;# 
   696  071D                     	;# 
   697  0791                     	;# 
   698  0791                     	;# 
   699  0792                     	;# 
   700  0793                     	;# 
   701  0793                     	;# 
   702  0794                     	;# 
   703  0795                     	;# 
   704  0795                     	;# 
   705  0796                     	;# 
   706  0797                     	;# 
   707  0797                     	;# 
   708  0798                     	;# 
   709  0799                     	;# 
   710  079A                     	;# 
   711  080C                     	;# 
   712  080C                     	;# 
   713  080D                     	;# 
   714  080E                     	;# 
   715  080E                     	;# 
   716  080F                     	;# 
   717  0810                     	;# 
   718  0810                     	;# 
   719  0811                     	;# 
   720  0812                     	;# 
   721  0812                     	;# 
   722  0813                     	;# 
   723  0814                     	;# 
   724  0815                     	;# 
   725  0816                     	;# 
   726  0817                     	;# 
   727  0818                     	;# 
   728  0819                     	;# 
   729  081A                     	;# 
   730  081A                     	;# 
   731  081B                     	;# 
   732  081C                     	;# 
   733  081C                     	;# 
   734  081D                     	;# 
   735  088C                     	;# 
   736  088D                     	;# 
   737  088E                     	;# 
   738  088F                     	;# 
   739  088F                     	;# 
   740  0890                     	;# 
   741  0891                     	;# 
   742  0892                     	;# 
   743  0893                     	;# 
   744  0893                     	;# 
   745  0894                     	;# 
   746  0895                     	;# 
   747  0896                     	;# 
   748  0897                     	;# 
   749  0897                     	;# 
   750  0898                     	;# 
   751  0899                     	;# 
   752  0D8C                     	;# 
   753  0D8C                     	;# 
   754  0D8D                     	;# 
   755  0D8E                     	;# 
   756  0D8F                     	;# 
   757  0D8F                     	;# 
   758  0D90                     	;# 
   759  0D91                     	;# 
   760  0D92                     	;# 
   761  0D92                     	;# 
   762  0D93                     	;# 
   763  0D94                     	;# 
   764  0D95                     	;# 
   765  0D95                     	;# 
   766  0D96                     	;# 
   767  0D97                     	;# 
   768  0D98                     	;# 
   769  0D99                     	;# 
   770  0D9A                     	;# 
   771  0D9B                     	;# 
   772  0D9C                     	;# 
   773  0D9D                     	;# 
   774  0D9E                     	;# 
   775  0D9E                     	;# 
   776  0D9F                     	;# 
   777  0DA0                     	;# 
   778  0DA1                     	;# 
   779  0DA1                     	;# 
   780  0DA2                     	;# 
   781  0DA3                     	;# 
   782  0DA4                     	;# 
   783  0DA4                     	;# 
   784  0DA5                     	;# 
   785  0DA6                     	;# 
   786  0DA7                     	;# 
   787  0DA7                     	;# 
   788  0DA8                     	;# 
   789  0DA9                     	;# 
   790  0DAA                     	;# 
   791  0DAB                     	;# 
   792  0DAC                     	;# 
   793  0DAD                     	;# 
   794  0DAE                     	;# 
   795  0DAF                     	;# 
   796  0E0F                     	;# 
   797  0E10                     	;# 
   798  0E11                     	;# 
   799  0E12                     	;# 
   800  0E13                     	;# 
   801  0E14                     	;# 
   802  0E15                     	;# 
   803  0E16                     	;# 
   804  0E17                     	;# 
   805  0E18                     	;# 
   806  0E19                     	;# 
   807  0E1A                     	;# 
   808  0E1B                     	;# 
   809  0E1C                     	;# 
   810  0E1D                     	;# 
   811  0E1E                     	;# 
   812  0E1F                     	;# 
   813  0E20                     	;# 
   814  0E21                     	;# 
   815  0E22                     	;# 
   816  0E23                     	;# 
   817  0E24                     	;# 
   818  0E25                     	;# 
   819  0E26                     	;# 
   820  0E27                     	;# 
   821  0E28                     	;# 
   822  0E29                     	;# 
   823  0E2A                     	;# 
   824  0E2B                     	;# 
   825  0E2C                     	;# 
   826  0E2D                     	;# 
   827  0E2E                     	;# 
   828  0E90                     	;# 
   829  0E91                     	;# 
   830  0E92                     	;# 
   831  0E94                     	;# 
   832  0E95                     	;# 
   833  0EA0                     	;# 
   834  0EA1                     	;# 
   835  0EA2                     	;# 
   836  0EA3                     	;# 
   837  0EA4                     	;# 
   838  0EA5                     	;# 
   839  0F0F                     	;# 
   840  0F10                     	;# 
   841  0F11                     	;# 
   842  0F12                     	;# 
   843  0F13                     	;# 
   844  0F14                     	;# 
   845  0F15                     	;# 
   846  0F16                     	;# 
   847  0F17                     	;# 
   848  0F18                     	;# 
   849  0F19                     	;# 
   850  0F1A                     	;# 
   851  0F1B                     	;# 
   852  0F1C                     	;# 
   853  0F1D                     	;# 
   854  0F1E                     	;# 
   855  0F1F                     	;# 
   856  0F20                     	;# 
   857  0F21                     	;# 
   858  0F22                     	;# 
   859  0F23                     	;# 
   860  0FE4                     	;# 
   861  0FE5                     	;# 
   862  0FE6                     	;# 
   863  0FE7                     	;# 
   864  0FE8                     	;# 
   865  0FE9                     	;# 
   866  0FEA                     	;# 
   867  0FEB                     	;# 
   868  0FED                     	;# 
   869  0FEE                     	;# 
   870  0FEF                     	;# 
   871  0000                     	;# 
   872  0001                     	;# 
   873  0002                     	;# 
   874  0003                     	;# 
   875  0004                     	;# 
   876  0005                     	;# 
   877  0006                     	;# 
   878  0007                     	;# 
   879  0008                     	;# 
   880  0009                     	;# 
   881  000A                     	;# 
   882  000B                     	;# 
   883  000C                     	;# 
   884  000E                     	;# 
   885  0010                     	;# 
   886  0011                     	;# 
   887  0012                     	;# 
   888  0013                     	;# 
   889  0014                     	;# 
   890  0015                     	;# 
   891  0016                     	;# 
   892  0016                     	;# 
   893  0017                     	;# 
   894  0018                     	;# 
   895  0019                     	;# 
   896  001A                     	;# 
   897  001A                     	;# 
   898  001B                     	;# 
   899  001B                     	;# 
   900  001C                     	;# 
   901  001D                     	;# 
   902  001E                     	;# 
   903  001F                     	;# 
   904  008C                     	;# 
   905  008E                     	;# 
   906  0090                     	;# 
   907  0091                     	;# 
   908  0092                     	;# 
   909  0093                     	;# 
   910  0094                     	;# 
   911  0095                     	;# 
   912  0096                     	;# 
   913  0098                     	;# 
   914  0099                     	;# 
   915  009A                     	;# 
   916  009B                     	;# 
   917  009B                     	;# 
   918  009C                     	;# 
   919  009D                     	;# 
   920  009E                     	;# 
   921  009F                     	;# 
   922  010C                     	;# 
   923  010E                     	;# 
   924  0111                     	;# 
   925  0112                     	;# 
   926  0113                     	;# 
   927  0114                     	;# 
   928  0115                     	;# 
   929  0116                     	;# 
   930  0117                     	;# 
   931  0118                     	;# 
   932  0119                     	;# 
   933  011C                     	;# 
   934  018C                     	;# 
   935  018E                     	;# 
   936  0191                     	;# 
   937  0191                     	;# 
   938  0192                     	;# 
   939  0193                     	;# 
   940  0193                     	;# 
   941  0194                     	;# 
   942  0195                     	;# 
   943  0196                     	;# 
   944  0197                     	;# 
   945  0199                     	;# 
   946  0199                     	;# 
   947  0199                     	;# 
   948  019A                     	;# 
   949  019A                     	;# 
   950  019A                     	;# 
   951  019B                     	;# 
   952  019B                     	;# 
   953  019B                     	;# 
   954  019B                     	;# 
   955  019B                     	;# 
   956  019C                     	;# 
   957  019C                     	;# 
   958  019C                     	;# 
   959  019D                     	;# 
   960  019D                     	;# 
   961  019D                     	;# 
   962  019E                     	;# 
   963  019E                     	;# 
   964  019E                     	;# 
   965  019F                     	;# 
   966  019F                     	;# 
   967  019F                     	;# 
   968  019F                     	;# 
   969  019F                     	;# 
   970  020C                     	;# 
   971  020E                     	;# 
   972  0211                     	;# 
   973  0211                     	;# 
   974  0212                     	;# 
   975  0212                     	;# 
   976  0213                     	;# 
   977  0213                     	;# 
   978  0214                     	;# 
   979  0214                     	;# 
   980  0215                     	;# 
   981  0215                     	;# 
   982  0215                     	;# 
   983  0215                     	;# 
   984  0216                     	;# 
   985  0216                     	;# 
   986  0217                     	;# 
   987  0217                     	;# 
   988  028C                     	;# 
   989  028E                     	;# 
   990  0291                     	;# 
   991  0291                     	;# 
   992  0292                     	;# 
   993  0293                     	;# 
   994  0294                     	;# 
   995  0298                     	;# 
   996  0298                     	;# 
   997  0299                     	;# 
   998  029A                     	;# 
   999  029B                     	;# 
  1000  029E                     	;# 
  1001  030C                     	;# 
  1002  030E                     	;# 
  1003  038C                     	;# 
  1004  038E                     	;# 
  1005  0391                     	;# 
  1006  0392                     	;# 
  1007  0393                     	;# 
  1008  0397                     	;# 
  1009  0398                     	;# 
  1010  0399                     	;# 
  1011  040E                     	;# 
  1012  0413                     	;# 
  1013  0413                     	;# 
  1014  0414                     	;# 
  1015  0414                     	;# 
  1016  0415                     	;# 
  1017  0416                     	;# 
  1018  0417                     	;# 
  1019  0418                     	;# 
  1020  041A                     	;# 
  1021  041A                     	;# 
  1022  041B                     	;# 
  1023  041B                     	;# 
  1024  041C                     	;# 
  1025  041D                     	;# 
  1026  041E                     	;# 
  1027  041F                     	;# 
  1028  0493                     	;# 
  1029  0494                     	;# 
  1030  0495                     	;# 
  1031  0496                     	;# 
  1032  049A                     	;# 
  1033  049B                     	;# 
  1034  049C                     	;# 
  1035  049D                     	;# 
  1036  058C                     	;# 
  1037  058C                     	;# 
  1038  058D                     	;# 
  1039  058E                     	;# 
  1040  058E                     	;# 
  1041  058F                     	;# 
  1042  0590                     	;# 
  1043  0590                     	;# 
  1044  0591                     	;# 
  1045  0592                     	;# 
  1046  0592                     	;# 
  1047  0593                     	;# 
  1048  0594                     	;# 
  1049  0594                     	;# 
  1050  0595                     	;# 
  1051  0596                     	;# 
  1052  0596                     	;# 
  1053  0597                     	;# 
  1054  0598                     	;# 
  1055  0599                     	;# 
  1056  059A                     	;# 
  1057  059B                     	;# 
  1058  059B                     	;# 
  1059  059C                     	;# 
  1060  059D                     	;# 
  1061  060C                     	;# 
  1062  060C                     	;# 
  1063  060D                     	;# 
  1064  060E                     	;# 
  1065  060F                     	;# 
  1066  060F                     	;# 
  1067  0610                     	;# 
  1068  0611                     	;# 
  1069  0612                     	;# 
  1070  0613                     	;# 
  1071  0614                     	;# 
  1072  0617                     	;# 
  1073  0617                     	;# 
  1074  0618                     	;# 
  1075  0619                     	;# 
  1076  061A                     	;# 
  1077  061A                     	;# 
  1078  061B                     	;# 
  1079  061C                     	;# 
  1080  0691                     	;# 
  1081  0692                     	;# 
  1082  0693                     	;# 
  1083  0694                     	;# 
  1084  0695                     	;# 
  1085  0696                     	;# 
  1086  0697                     	;# 
  1087  0699                     	;# 
  1088  069A                     	;# 
  1089  0711                     	;# 
  1090  0712                     	;# 
  1091  0713                     	;# 
  1092  0714                     	;# 
  1093  0715                     	;# 
  1094  0718                     	;# 
  1095  0718                     	;# 
  1096  0719                     	;# 
  1097  071A                     	;# 
  1098  071A                     	;# 
  1099  071B                     	;# 
  1100  071C                     	;# 
  1101  071D                     	;# 
  1102  0791                     	;# 
  1103  0791                     	;# 
  1104  0792                     	;# 
  1105  0793                     	;# 
  1106  0793                     	;# 
  1107  0794                     	;# 
  1108  0795                     	;# 
  1109  0795                     	;# 
  1110  0796                     	;# 
  1111  0797                     	;# 
  1112  0797                     	;# 
  1113  0798                     	;# 
  1114  0799                     	;# 
  1115  079A                     	;# 
  1116  080C                     	;# 
  1117  080C                     	;# 
  1118  080D                     	;# 
  1119  080E                     	;# 
  1120  080E                     	;# 
  1121  080F                     	;# 
  1122  0810                     	;# 
  1123  0810                     	;# 
  1124  0811                     	;# 
  1125  0812                     	;# 
  1126  0812                     	;# 
  1127  0813                     	;# 
  1128  0814                     	;# 
  1129  0815                     	;# 
  1130  0816                     	;# 
  1131  0817                     	;# 
  1132  0818                     	;# 
  1133  0819                     	;# 
  1134  081A                     	;# 
  1135  081A                     	;# 
  1136  081B                     	;# 
  1137  081C                     	;# 
  1138  081C                     	;# 
  1139  081D                     	;# 
  1140  088C                     	;# 
  1141  088D                     	;# 
  1142  088E                     	;# 
  1143  088F                     	;# 
  1144  088F                     	;# 
  1145  0890                     	;# 
  1146  0891                     	;# 
  1147  0892                     	;# 
  1148  0893                     	;# 
  1149  0893                     	;# 
  1150  0894                     	;# 
  1151  0895                     	;# 
  1152  0896                     	;# 
  1153  0897                     	;# 
  1154  0897                     	;# 
  1155  0898                     	;# 
  1156  0899                     	;# 
  1157  0D8C                     	;# 
  1158  0D8C                     	;# 
  1159  0D8D                     	;# 
  1160  0D8E                     	;# 
  1161  0D8F                     	;# 
  1162  0D8F                     	;# 
  1163  0D90                     	;# 
  1164  0D91                     	;# 
  1165  0D92                     	;# 
  1166  0D92                     	;# 
  1167  0D93                     	;# 
  1168  0D94                     	;# 
  1169  0D95                     	;# 
  1170  0D95                     	;# 
  1171  0D96                     	;# 
  1172  0D97                     	;# 
  1173  0D98                     	;# 
  1174  0D99                     	;# 
  1175  0D9A                     	;# 
  1176  0D9B                     	;# 
  1177  0D9C                     	;# 
  1178  0D9D                     	;# 
  1179  0D9E                     	;# 
  1180  0D9E                     	;# 
  1181  0D9F                     	;# 
  1182  0DA0                     	;# 
  1183  0DA1                     	;# 
  1184  0DA1                     	;# 
  1185  0DA2                     	;# 
  1186  0DA3                     	;# 
  1187  0DA4                     	;# 
  1188  0DA4                     	;# 
  1189  0DA5                     	;# 
  1190  0DA6                     	;# 
  1191  0DA7                     	;# 
  1192  0DA7                     	;# 
  1193  0DA8                     	;# 
  1194  0DA9                     	;# 
  1195  0DAA                     	;# 
  1196  0DAB                     	;# 
  1197  0DAC                     	;# 
  1198  0DAD                     	;# 
  1199  0DAE                     	;# 
  1200  0DAF                     	;# 
  1201  0E0F                     	;# 
  1202  0E10                     	;# 
  1203  0E11                     	;# 
  1204  0E12                     	;# 
  1205  0E13                     	;# 
  1206  0E14                     	;# 
  1207  0E15                     	;# 
  1208  0E16                     	;# 
  1209  0E17                     	;# 
  1210  0E18                     	;# 
  1211  0E19                     	;# 
  1212  0E1A                     	;# 
  1213  0E1B                     	;# 
  1214  0E1C                     	;# 
  1215  0E1D                     	;# 
  1216  0E1E                     	;# 
  1217  0E1F                     	;# 
  1218  0E20                     	;# 
  1219  0E21                     	;# 
  1220  0E22                     	;# 
  1221  0E23                     	;# 
  1222  0E24                     	;# 
  1223  0E25                     	;# 
  1224  0E26                     	;# 
  1225  0E27                     	;# 
  1226  0E28                     	;# 
  1227  0E29                     	;# 
  1228  0E2A                     	;# 
  1229  0E2B                     	;# 
  1230  0E2C                     	;# 
  1231  0E2D                     	;# 
  1232  0E2E                     	;# 
  1233  0E90                     	;# 
  1234  0E91                     	;# 
  1235  0E92                     	;# 
  1236  0E94                     	;# 
  1237  0E95                     	;# 
  1238  0EA0                     	;# 
  1239  0EA1                     	;# 
  1240  0EA2                     	;# 
  1241  0EA3                     	;# 
  1242  0EA4                     	;# 
  1243  0EA5                     	;# 
  1244  0F0F                     	;# 
  1245  0F10                     	;# 
  1246  0F11                     	;# 
  1247  0F12                     	;# 
  1248  0F13                     	;# 
  1249  0F14                     	;# 
  1250  0F15                     	;# 
  1251  0F16                     	;# 
  1252  0F17                     	;# 
  1253  0F18                     	;# 
  1254  0F19                     	;# 
  1255  0F1A                     	;# 
  1256  0F1B                     	;# 
  1257  0F1C                     	;# 
  1258  0F1D                     	;# 
  1259  0F1E                     	;# 
  1260  0F1F                     	;# 
  1261  0F20                     	;# 
  1262  0F21                     	;# 
  1263  0F22                     	;# 
  1264  0F23                     	;# 
  1265  0FE4                     	;# 
  1266  0FE5                     	;# 
  1267  0FE6                     	;# 
  1268  0FE7                     	;# 
  1269  0FE8                     	;# 
  1270  0FE9                     	;# 
  1271  0FEA                     	;# 
  1272  0FEB                     	;# 
  1273  0FED                     	;# 
  1274  0FEE                     	;# 
  1275  0FEF                     	;___SSP1_I2C_slave_buffer_data
  1276  0011                     _PIR2bits	set	17
  1277  0010                     _PIR1bits	set	16
  1278  000B                     _INTCONbits	set	11
  1279  000E                     _PORTCbits	set	14
  1280  000C                     _PORTAbits	set	12
  1281  0091                     _PIE2bits	set	145
  1282  0090                     _PIE1bits	set	144
  1283  008E                     _TRISCbits	set	142
  1284  008C                     _TRISAbits	set	140
  1285  0099                     _OSCCONbits	set	153
  1286  018E                     _ANSELCbits	set	398
  1287  018C                     _ANSELAbits	set	396
  1288  0211                     _SSP1BUF	set	529
  1289  0217                     _SSP1CON3bits	set	535
  1290  0216                     _SSP1CON2bits	set	534
  1291  0215                     _SSP1CON1bits	set	533
  1292  0214                     _SSP1STATbits	set	532
  1293  0213                     _SSP1MSK	set	531
  1294  0212                     _SSP1ADD	set	530
  1295  020E                     _WPUCbits	set	526
  1296  020C                     _WPUAbits	set	524
  1297  028E                     _ODCONCbits	set	654
  1298  0E21                     _SSPDATPPS	set	3617
  1299  0E20                     _SSPCLKPPS	set	3616
  1300  0EA1                     _RC1PPS	set	3745
  1301  0EA0                     _RC0PPS	set	3744
  1302                           
  1303                           ; #config settings
  1304  0000                     
  1305                           	psect	cinit
  1306  000E                     start_initialization:	
  1307  000E                     __initialization:	
  1308                           
  1309                           ; Clear objects allocated to BIGRAM
  1310  000E  30F0               	movlw	low (0+8432)
  1311  000F  0084               	movwf	4
  1312  0010  3020               	movlw	high (0+8432)
  1313  0011  0085               	movwf	5
  1314  0012  3000               	movlw	0
  1315  0013  00FE               	movwf	btemp
  1316  0014  3001               	movlw	1
  1317  0015  00FF               	movwf	btemp+1
  1318  0016  3181  2115         	fcall	clear_ram0
  1319                           
  1320                           ; Clear objects allocated to COMMON
  1321  0018  01F8               	clrf	__pbssCOMMON& (0+127)
  1322  0019  01F9               	clrf	(__pbssCOMMON+1)& (0+127)
  1323  001A  01FA               	clrf	(__pbssCOMMON+2)& (0+127)
  1324  001B  01FB               	clrf	(__pbssCOMMON+3)& (0+127)
  1325  001C                     end_of_initialization:	
  1326                           ;End of C runtime variable initialization code
  1327                           
  1328  001C                     __end_of__initialization:	
  1329  001C  107E               	bcf	int$flags,0	;clear compiler interrupt flag (level 1)
  1330  001D  0020               	movlb	0
  1331  001E  3181  2908         	ljmp	_main	;jump to C main() function
  1332                           
  1333                           	psect	text0
  1334  0000                     __ptext0:		;BIGRAM
  1335                           
  1336                           	psect	bssCOMMON
  1337  0078                     __pbssCOMMON:	
  1338  0078                     ___SSP1_I2C_slave_buffer_index:	
  1339  0078                     	ds	2
  1340  007A                     ___SSP1_I2C_slave_address:	
  1341  007A                     	ds	1
  1342  007B                     ___SSP1_I2C_slave_null:	
  1343  007B                     	ds	1
  1344                           
  1345                           	psect	clrtext
  1346  0115                     clear_ram0:	
  1347                           ;	Called with FSR0 containing the base address, and
  1348                           ;	btemp/btemp+1 has the size to clear
  1349                           
  1350  0115  0064               	clrwdt	;clear the watchdog before getting into this loop
  1351  0116                     clrloop0:	
  1352  0116  0180               	clrf	0	;clear RAM location pointed to by FSR
  1353  0117  3101               	addfsr 0,1
  1354  0118  3001               	movlw	1
  1355  0119  02FE               	subwf	126,f
  1356  011A  3000               	movlw	0
  1357  011B  3BFF               	subwfb	127,f
  1358  011C  087F               	movf	127,w
  1359  011D  047E               	iorwf	126,w
  1360  011E  1903               	btfsc	3,2
  1361  011F  3400               	retlw	0	;all done for this memory range, return
  1362  0120  2916               	goto	clrloop0	;have we reached the end yet?
  1363                           
  1364                           	psect	cstackCOMMON
  1365  0070                     __pcstackCOMMON:	
  1366  0070                     ?_SSP1_I2C_slave_handle_interrupt:	
  1367  0070                     ?_SSP1_I2C_slave_init:	
  1368                           ; 1 bytes @ 0x0
  1369                           
  1370  0070                     ?_intosc_init:	
  1371                           ; 1 bytes @ 0x0
  1372                           
  1373  0070                     ?_pins_init:	
  1374                           ; 1 bytes @ 0x0
  1375                           
  1376  0070                     ?_interrupt_handler:	
  1377                           ; 1 bytes @ 0x0
  1378                           
  1379  0070                     ?_SSP1_I2C_slave_begin:	
  1380                           ; 1 bytes @ 0x0
  1381                           
  1382  0070                     ??_SSP1_I2C_slave_begin:	
  1383                           ; 1 bytes @ 0x0
  1384                           
  1385  0070                     ?_SSP1_I2C_slave_read:	
  1386                           ; 1 bytes @ 0x0
  1387                           
  1388  0070                     ?_SSP1_I2C_slave_write:	
  1389                           ; 1 bytes @ 0x0
  1390                           
  1391  0070                     ?_SSP1_I2C_slave_end:	
  1392                           ; 1 bytes @ 0x0
  1393                           
  1394  0070                     ??_SSP1_I2C_slave_end:	
  1395                           ; 1 bytes @ 0x0
  1396                           
  1397  0070                     ?_main:	
  1398                           ; 1 bytes @ 0x0
  1399                           
  1400  0070                     SSP1_I2C_slave_begin@address:	
  1401                           ; 1 bytes @ 0x0
  1402                           
  1403  0070                     SSP1_I2C_slave_read@data:	
  1404                           ; 1 bytes @ 0x0
  1405                           
  1406  0070                     SSP1_I2C_slave_write@data:	
  1407                           ; 2 bytes @ 0x0
  1408                           
  1409                           
  1410                           ; 2 bytes @ 0x0
  1411  0070                     	ds	2
  1412  0072                     ??_SSP1_I2C_slave_write:	
  1413  0072                     SSP1_I2C_slave_read@length:	
  1414                           ; 1 bytes @ 0x2
  1415                           
  1416                           
  1417                           ; 2 bytes @ 0x2
  1418  0072                     	ds	2
  1419  0074                     ??_SSP1_I2C_slave_handle_interrupt:	
  1420  0074                     ??_SSP1_I2C_slave_read:	
  1421                           ; 1 bytes @ 0x4
  1422                           
  1423                           
  1424                           ; 1 bytes @ 0x4
  1425  0074                     	ds	4
  1426  0078                     ??_interrupt_handler:	
  1427                           
  1428                           	psect	cstackBANK0
  1429  0020                     __pcstackBANK0:	
  1430                           ; 1 bytes @ 0x8
  1431                           
  1432  0020                     ??_SSP1_I2C_slave_init:	
  1433  0020                     ??_intosc_init:	
  1434                           ; 1 bytes @ 0x0
  1435                           
  1436  0020                     ??_pins_init:	
  1437                           ; 1 bytes @ 0x0
  1438                           
  1439  0020                     SSP1_I2C_slave_init@address:	
  1440                           ; 1 bytes @ 0x0
  1441                           
  1442                           
  1443                           ; 1 bytes @ 0x0
  1444  0020                     	ds	1
  1445  0021                     ??_main:	
  1446                           
  1447                           	psect	maintext
  1448  0108                     __pmaintext:	
  1449                           ; 1 bytes @ 0x1
  1450 ;;
  1451 ;;Main: autosize = 0, tempsize = 0, incstack = 0, save=0
  1452 ;;
  1453 ;; *************** function _main *****************
  1454 ;; Defined at:
  1455 ;;		line 223 in file "main.c"
  1456 ;; Parameters:    Size  Location     Type
  1457 ;;		None
  1458 ;; Auto vars:     Size  Location     Type
  1459 ;;		None
  1460 ;; Return value:  Size  Location     Type
  1461 ;;                  1    wreg      void 
  1462 ;; Registers used:
  1463 ;;		wreg, status,2, status,0, pclath, cstack
  1464 ;; Tracked objects:
  1465 ;;		On entry : B1F/0
  1466 ;;		On exit  : 0/0
  1467 ;;		Unchanged: 0/0
  1468 ;; Data sizes:     COMMON   BANK0   BANK1   BANK2   BANK3   BANK4   BANK5   BANK6
  1469 ;;      Params:         0       0       0       0       0       0       0       0
  1470 ;;      Locals:         0       0       0       0       0       0       0       0
  1471 ;;      Temps:          0       0       0       0       0       0       0       0
  1472 ;;      Totals:         0       0       0       0       0       0       0       0
  1473 ;;Total ram usage:        0 bytes
  1474 ;; Hardware stack levels required when called:    4
  1475 ;; This function calls:
  1476 ;;		_SSP1_I2C_slave_init
  1477 ;;		_intosc_init
  1478 ;;		_pins_init
  1479 ;; This function is called by:
  1480 ;;		Startup code after reset
  1481 ;; This function uses a non-reentrant model
  1482 ;;
  1483                           
  1484                           
  1485                           ;psect for function _main
  1486  0108                     _main:	
  1487                           
  1488                           ;main.c: 226:     intosc_init();
  1489                           
  1490                           ;incstack = 0
  1491                           ; Regs used in _main: [wreg+status,2+status,0+pclath+cstack]
  1492  0108  3181  2121  3181   	fcall	_intosc_init
  1493                           
  1494                           ;main.c: 230:     pins_init();
  1495  010B  3180  20A9  3181   	fcall	_pins_init
  1496                           
  1497                           ;main.c: 236:     INTCONbits.GIE = 1;
  1498  010E  178B               	bsf	11,7	;volatile
  1499                           
  1500                           ;main.c: 238:     INTCONbits.PEIE = 1;
  1501  010F  170B               	bsf	11,6	;volatile
  1502                           
  1503                           ;main.c: 242:     SSP1_I2C_slave_init(0x18);
  1504  0110  3018               	movlw	24
  1505  0111  3180  20E9  3181   	fcall	_SSP1_I2C_slave_init
  1506  0114                     l71:	
  1507                           ;main.c: 244:     while(1)
  1508                           
  1509                           
  1510                           ;main.c: 245:     {;main.c: 253:     }
  1511  0114  2914               	goto	l71
  1512  0115                     __end_of_main:	
  1513                           
  1514                           	psect	text1
  1515  00A9                     __ptext1:	
  1516 ;; *************** function _pins_init *****************
  1517 ;; Defined at:
  1518 ;;		line 58 in file "main.c"
  1519 ;; Parameters:    Size  Location     Type
  1520 ;;		None
  1521 ;; Auto vars:     Size  Location     Type
  1522 ;;		None
  1523 ;; Return value:  Size  Location     Type
  1524 ;;                  1    wreg      void 
  1525 ;; Registers used:
  1526 ;;		wreg
  1527 ;; Tracked objects:
  1528 ;;		On entry : 0/0
  1529 ;;		On exit  : 0/0
  1530 ;;		Unchanged: 0/0
  1531 ;; Data sizes:     COMMON   BANK0   BANK1   BANK2   BANK3   BANK4   BANK5   BANK6
  1532 ;;      Params:         0       0       0       0       0       0       0       0
  1533 ;;      Locals:         0       0       0       0       0       0       0       0
  1534 ;;      Temps:          0       0       0       0       0       0       0       0
  1535 ;;      Totals:         0       0       0       0       0       0       0       0
  1536 ;;Total ram usage:        0 bytes
  1537 ;; Hardware stack levels used:    1
  1538 ;; Hardware stack levels required when called:    3
  1539 ;; This function calls:
  1540 ;;		Nothing
  1541 ;; This function is called by:
  1542 ;;		_main
  1543 ;; This function uses a non-reentrant model
  1544 ;;
  1545                           
  1546                           
  1547                           ;psect for function _pins_init
  1548  00A9                     _pins_init:	
  1549                           
  1550                           ;main.c: 69:     SSPCLKPPS = 0b10000;
  1551                           
  1552                           ;incstack = 0
  1553                           ; Regs used in _pins_init: [wreg]
  1554  00A9  3010               	movlw	16
  1555  00AA  003C               	movlb	28	; select bank28
  1556  00AB  00A0               	movwf	32	;volatile
  1557                           
  1558                           ;main.c: 70:     SSPDATPPS = 0b10001;
  1559  00AC  3011               	movlw	17
  1560  00AD  00A1               	movwf	33	;volatile
  1561                           
  1562                           ;main.c: 76:     RC0PPS = 0b10000;
  1563  00AE  3010               	movlw	16
  1564  00AF  003D               	movlb	29	; select bank29
  1565  00B0  00A0               	movwf	32	;volatile
  1566                           
  1567                           ;main.c: 77:     RC1PPS = 0b10001;
  1568  00B1  3011               	movlw	17
  1569  00B2  00A1               	movwf	33	;volatile
  1570                           
  1571                           ;main.c: 85:     ANSELAbits.ANSA0 = 0;
  1572  00B3  0023               	movlb	3	; select bank3
  1573  00B4  100C               	bcf	12,0	;volatile
  1574                           
  1575                           ;main.c: 86:     ANSELAbits.ANSA1 = 0;
  1576  00B5  108C               	bcf	12,1	;volatile
  1577                           
  1578                           ;main.c: 87:     ANSELAbits.ANSA2 = 0;
  1579  00B6  110C               	bcf	12,2	;volatile
  1580                           
  1581                           ;main.c: 88:     ANSELAbits.ANSA4 = 0;
  1582  00B7  120C               	bcf	12,4	;volatile
  1583                           
  1584                           ;main.c: 96:     TRISAbits.TRISA0 = 0;
  1585  00B8  0021               	movlb	1	; select bank1
  1586  00B9  100C               	bcf	12,0	;volatile
  1587                           
  1588                           ;main.c: 97:     TRISAbits.TRISA1 = 0;
  1589  00BA  108C               	bcf	12,1	;volatile
  1590                           
  1591                           ;main.c: 98:     TRISAbits.TRISA2 = 0;
  1592  00BB  110C               	bcf	12,2	;volatile
  1593                           
  1594                           ;main.c: 99:     TRISAbits.TRISA3 = 0;
  1595  00BC  118C               	bcf	12,3	;volatile
  1596                           
  1597                           ;main.c: 100:     TRISAbits.TRISA4 = 0;
  1598  00BD  120C               	bcf	12,4	;volatile
  1599                           
  1600                           ;main.c: 101:     TRISAbits.TRISA5 = 0;
  1601  00BE  128C               	bcf	12,5	;volatile
  1602                           
  1603                           ;main.c: 109:     WPUAbits.WPUA0 = 0;
  1604  00BF  0024               	movlb	4	; select bank4
  1605  00C0  100C               	bcf	12,0	;volatile
  1606                           
  1607                           ;main.c: 110:     WPUAbits.WPUA1 = 0;
  1608  00C1  108C               	bcf	12,1	;volatile
  1609                           
  1610                           ;main.c: 111:     WPUAbits.WPUA2 = 0;
  1611  00C2  110C               	bcf	12,2	;volatile
  1612                           
  1613                           ;main.c: 112:     WPUAbits.WPUA3 = 0;
  1614  00C3  118C               	bcf	12,3	;volatile
  1615                           
  1616                           ;main.c: 113:     WPUAbits.WPUA4 = 0;
  1617  00C4  120C               	bcf	12,4	;volatile
  1618                           
  1619                           ;main.c: 114:     WPUAbits.WPUA5 = 0;
  1620  00C5  128C               	bcf	12,5	;volatile
  1621                           
  1622                           ;main.c: 122:     PORTAbits.RA0 = 1;
  1623  00C6  0020               	movlb	0	; select bank0
  1624  00C7  140C               	bsf	12,0	;volatile
  1625                           
  1626                           ;main.c: 123:     PORTAbits.RA1 = 1;
  1627  00C8  148C               	bsf	12,1	;volatile
  1628                           
  1629                           ;main.c: 124:     PORTAbits.RA2 = 1;
  1630  00C9  150C               	bsf	12,2	;volatile
  1631                           
  1632                           ;main.c: 125:     PORTAbits.RA3 = 1;
  1633  00CA  158C               	bsf	12,3	;volatile
  1634                           
  1635                           ;main.c: 126:     PORTAbits.RA4 = 1;
  1636  00CB  160C               	bsf	12,4	;volatile
  1637                           
  1638                           ;main.c: 127:     PORTAbits.RA5 = 1;
  1639  00CC  168C               	bsf	12,5	;volatile
  1640                           
  1641                           ;main.c: 135:     ANSELCbits.ANSC0 = 0;
  1642  00CD  0023               	movlb	3	; select bank3
  1643  00CE  100E               	bcf	14,0	;volatile
  1644                           
  1645                           ;main.c: 136:     ANSELCbits.ANSC1 = 0;
  1646  00CF  108E               	bcf	14,1	;volatile
  1647                           
  1648                           ;main.c: 137:     ANSELCbits.ANSC2 = 0;
  1649  00D0  110E               	bcf	14,2	;volatile
  1650                           
  1651                           ;main.c: 138:     ANSELCbits.ANSC3 = 0;
  1652  00D1  118E               	bcf	14,3	;volatile
  1653                           
  1654                           ;main.c: 144:     TRISCbits.TRISC0 = 1;
  1655  00D2  0021               	movlb	1	; select bank1
  1656  00D3  140E               	bsf	14,0	;volatile
  1657                           
  1658                           ;main.c: 145:     TRISCbits.TRISC1 = 1;
  1659  00D4  148E               	bsf	14,1	;volatile
  1660                           
  1661                           ;main.c: 146:     TRISCbits.TRISC2 = 0;
  1662  00D5  110E               	bcf	14,2	;volatile
  1663                           
  1664                           ;main.c: 147:     TRISCbits.TRISC3 = 0;
  1665  00D6  118E               	bcf	14,3	;volatile
  1666                           
  1667                           ;main.c: 148:     TRISCbits.TRISC4 = 0;
  1668  00D7  120E               	bcf	14,4	;volatile
  1669                           
  1670                           ;main.c: 149:     TRISCbits.TRISC5 = 0;
  1671  00D8  128E               	bcf	14,5	;volatile
  1672                           
  1673                           ;main.c: 157:     WPUCbits.WPUC0 = 0;
  1674  00D9  0024               	movlb	4	; select bank4
  1675  00DA  100E               	bcf	14,0	;volatile
  1676                           
  1677                           ;main.c: 158:     WPUCbits.WPUC1 = 0;
  1678  00DB  108E               	bcf	14,1	;volatile
  1679                           
  1680                           ;main.c: 159:     WPUCbits.WPUC2 = 0;
  1681  00DC  110E               	bcf	14,2	;volatile
  1682                           
  1683                           ;main.c: 160:     WPUCbits.WPUC3 = 0;
  1684  00DD  118E               	bcf	14,3	;volatile
  1685                           
  1686                           ;main.c: 161:     WPUCbits.WPUC4 = 0;
  1687  00DE  120E               	bcf	14,4	;volatile
  1688                           
  1689                           ;main.c: 162:     WPUCbits.WPUC5 = 0;
  1690  00DF  128E               	bcf	14,5	;volatile
  1691                           
  1692                           ;main.c: 168:     ODCONCbits.ODC0 = 1;
  1693  00E0  0025               	movlb	5	; select bank5
  1694  00E1  140E               	bsf	14,0	;volatile
  1695                           
  1696                           ;main.c: 169:     ODCONCbits.ODC1 = 1;
  1697  00E2  148E               	bsf	14,1	;volatile
  1698                           
  1699                           ;main.c: 177:     PORTCbits.RC2 = 0;
  1700  00E3  0020               	movlb	0	; select bank0
  1701  00E4  110E               	bcf	14,2	;volatile
  1702                           
  1703                           ;main.c: 178:     PORTCbits.RC3 = 1;
  1704  00E5  158E               	bsf	14,3	;volatile
  1705                           
  1706                           ;main.c: 179:     PORTCbits.RC4 = 1;
  1707  00E6  160E               	bsf	14,4	;volatile
  1708                           
  1709                           ;main.c: 180:     PORTCbits.RC5 = 1;
  1710  00E7  168E               	bsf	14,5	;volatile
  1711  00E8  0008               	return
  1712  00E9                     __end_of_pins_init:	
  1713                           
  1714                           	psect	text2
  1715  0121                     __ptext2:	
  1716 ;; *************** function _intosc_init *****************
  1717 ;; Defined at:
  1718 ;;		line 22 in file "main.c"
  1719 ;; Parameters:    Size  Location     Type
  1720 ;;		None
  1721 ;; Auto vars:     Size  Location     Type
  1722 ;;		None
  1723 ;; Return value:  Size  Location     Type
  1724 ;;                  1    wreg      void 
  1725 ;; Registers used:
  1726 ;;		wreg, status,2, status,0
  1727 ;; Tracked objects:
  1728 ;;		On entry : 0/0
  1729 ;;		On exit  : 0/0
  1730 ;;		Unchanged: 0/0
  1731 ;; Data sizes:     COMMON   BANK0   BANK1   BANK2   BANK3   BANK4   BANK5   BANK6
  1732 ;;      Params:         0       0       0       0       0       0       0       0
  1733 ;;      Locals:         0       0       0       0       0       0       0       0
  1734 ;;      Temps:          0       0       0       0       0       0       0       0
  1735 ;;      Totals:         0       0       0       0       0       0       0       0
  1736 ;;Total ram usage:        0 bytes
  1737 ;; Hardware stack levels used:    1
  1738 ;; Hardware stack levels required when called:    3
  1739 ;; This function calls:
  1740 ;;		Nothing
  1741 ;; This function is called by:
  1742 ;;		_main
  1743 ;; This function uses a non-reentrant model
  1744 ;;
  1745                           
  1746                           
  1747                           ;psect for function _intosc_init
  1748  0121                     _intosc_init:	
  1749                           
  1750                           ;main.c: 29:     OSCCONbits.IRCF = 0b1101;
  1751                           
  1752                           ;incstack = 0
  1753                           ; Regs used in _intosc_init: [wreg+status,2+status,0]
  1754  0121  0021               	movlb	1	; select bank1
  1755  0122  0819               	movf	25,w	;volatile
  1756  0123  3987               	andlw	-121
  1757  0124  3868               	iorlw	104
  1758  0125  0099               	movwf	25	;volatile
  1759  0126  0008               	return
  1760  0127                     __end_of_intosc_init:	
  1761                           
  1762                           	psect	text3
  1763  00E9                     __ptext3:	
  1764 ;; *************** function _SSP1_I2C_slave_init *****************
  1765 ;; Defined at:
  1766 ;;		line 4 in file "i2c_pic16f1614.c"
  1767 ;; Parameters:    Size  Location     Type
  1768 ;;  address         1    wreg     unsigned char 
  1769 ;; Auto vars:     Size  Location     Type
  1770 ;;  address         1    0[BANK0 ] unsigned char 
  1771 ;; Return value:  Size  Location     Type
  1772 ;;                  1    wreg      void 
  1773 ;; Registers used:
  1774 ;;		wreg, status,2, status,0
  1775 ;; Tracked objects:
  1776 ;;		On entry : 0/0
  1777 ;;		On exit  : 0/0
  1778 ;;		Unchanged: 0/0
  1779 ;; Data sizes:     COMMON   BANK0   BANK1   BANK2   BANK3   BANK4   BANK5   BANK6
  1780 ;;      Params:         0       0       0       0       0       0       0       0
  1781 ;;      Locals:         0       1       0       0       0       0       0       0
  1782 ;;      Temps:          0       0       0       0       0       0       0       0
  1783 ;;      Totals:         0       1       0       0       0       0       0       0
  1784 ;;Total ram usage:        1 bytes
  1785 ;; Hardware stack levels used:    1
  1786 ;; Hardware stack levels required when called:    3
  1787 ;; This function calls:
  1788 ;;		Nothing
  1789 ;; This function is called by:
  1790 ;;		_main
  1791 ;; This function uses a non-reentrant model
  1792 ;;
  1793                           
  1794                           
  1795                           ;psect for function _SSP1_I2C_slave_init
  1796  00E9                     _SSP1_I2C_slave_init:	
  1797                           
  1798                           ;incstack = 0
  1799                           ; Regs used in _SSP1_I2C_slave_init: [wreg+status,2+status,0]
  1800                           ;SSP1_I2C_slave_init@address stored from wreg
  1801  00E9  0020               	movlb	0	; select bank0
  1802  00EA  00A0               	movwf	SSP1_I2C_slave_init@address
  1803                           
  1804                           ;i2c_pic16f1614.c: 4: void SSP1_I2C_slave_init(unsigned char address);i2c_pic16f1614.c: 
      +                          5: {;i2c_pic16f1614.c: 9:     PIE1bits.SSP1IE = 1;
  1805  00EB  0021               	movlb	1	; select bank1
  1806  00EC  1590               	bsf	16,3	;volatile
  1807                           
  1808                           ;i2c_pic16f1614.c: 15:     PIR1bits.SSP1IF = 0;
  1809  00ED  0020               	movlb	0	; select bank0
  1810  00EE  1190               	bcf	16,3	;volatile
  1811                           
  1812                           ;i2c_pic16f1614.c: 21:     PIE2bits.BCL1IE = 1;
  1813  00EF  0021               	movlb	1	; select bank1
  1814  00F0  1591               	bsf	17,3	;volatile
  1815                           
  1816                           ;i2c_pic16f1614.c: 27:     PIR2bits.BCL1IF = 0;
  1817  00F1  0020               	movlb	0	; select bank0
  1818  00F2  1191               	bcf	17,3	;volatile
  1819                           
  1820                           ;i2c_pic16f1614.c: 33:     SSP1ADD = (unsigned char) (address << 1);
  1821  00F3  3520               	lslf	SSP1_I2C_slave_init@address,w
  1822  00F4  0024               	movlb	4	; select bank4
  1823  00F5  0092               	movwf	18	;volatile
  1824                           
  1825                           ;i2c_pic16f1614.c: 39:     SSP1MSK = 0b11111111;
  1826  00F6  30FF               	movlw	255
  1827  00F7  0093               	movwf	19	;volatile
  1828                           
  1829                           ;i2c_pic16f1614.c: 45:     SSP1STATbits.SMP = 1;
  1830  00F8  1794               	bsf	20,7	;volatile
  1831                           
  1832                           ;i2c_pic16f1614.c: 47:     SSP1STATbits.CKE = 1;
  1833  00F9  1714               	bsf	20,6	;volatile
  1834                           
  1835                           ;i2c_pic16f1614.c: 53:     SSP1CON1bits.WCOL = 0;
  1836  00FA  1395               	bcf	21,7	;volatile
  1837                           
  1838                           ;i2c_pic16f1614.c: 55:     SSP1CON1bits.SSPOV = 0;
  1839  00FB  1315               	bcf	21,6	;volatile
  1840                           
  1841                           ;i2c_pic16f1614.c: 57:      SSP1CON1bits.SSPEN = 1;
  1842  00FC  1695               	bsf	21,5	;volatile
  1843                           
  1844                           ;i2c_pic16f1614.c: 59:     SSP1CON1bits.CKP = 1;
  1845  00FD  1615               	bsf	21,4	;volatile
  1846                           
  1847                           ;i2c_pic16f1614.c: 61:     SSP1CON1bits.SSPM = 0b0110;
  1848  00FE  0815               	movf	21,w	;volatile
  1849  00FF  39F0               	andlw	-16
  1850  0100  3806               	iorlw	6
  1851  0101  0095               	movwf	21	;volatile
  1852                           
  1853                           ;i2c_pic16f1614.c: 67:      SSP1CON2bits.SEN = 1;
  1854  0102  1416               	bsf	22,0	;volatile
  1855                           
  1856                           ;i2c_pic16f1614.c: 73:     SSP1CON3bits.PCIE = 1;
  1857  0103  1717               	bsf	23,6	;volatile
  1858                           
  1859                           ;i2c_pic16f1614.c: 75:     SSP1CON3bits.SCIE = 1;
  1860  0104  1697               	bsf	23,5	;volatile
  1861                           
  1862                           ;i2c_pic16f1614.c: 77:     SSP1CON3bits.SDAHT = 1;
  1863  0105  1597               	bsf	23,3	;volatile
  1864                           
  1865                           ;i2c_pic16f1614.c: 79:     SSP1CON3bits.SBCDE = 1;
  1866  0106  1517               	bsf	23,2	;volatile
  1867  0107  0008               	return
  1868  0108                     __end_of_SSP1_I2C_slave_init:	
  1869                           
  1870                           	psect	intentry
  1871  0004                     __pintentry:	
  1872 ;; *************** function _interrupt_handler *****************
  1873 ;; Defined at:
  1874 ;;		line 184 in file "main.c"
  1875 ;; Parameters:    Size  Location     Type
  1876 ;;		None
  1877 ;; Auto vars:     Size  Location     Type
  1878 ;;		None
  1879 ;; Return value:  Size  Location     Type
  1880 ;;                  1    wreg      void 
  1881 ;; Registers used:
  1882 ;;		wreg, fsr1l, fsr1h, status,2, status,0, pclath, cstack
  1883 ;; Tracked objects:
  1884 ;;		On entry : 0/0
  1885 ;;		On exit  : 0/0
  1886 ;;		Unchanged: 0/0
  1887 ;; Data sizes:     COMMON   BANK0   BANK1   BANK2   BANK3   BANK4   BANK5   BANK6
  1888 ;;      Params:         0       0       0       0       0       0       0       0
  1889 ;;      Locals:         0       0       0       0       0       0       0       0
  1890 ;;      Temps:          0       0       0       0       0       0       0       0
  1891 ;;      Totals:         0       0       0       0       0       0       0       0
  1892 ;;Total ram usage:        0 bytes
  1893 ;; Hardware stack levels used:    1
  1894 ;; Hardware stack levels required when called:    2
  1895 ;; This function calls:
  1896 ;;		_SSP1_I2C_slave_handle_interrupt
  1897 ;; This function is called by:
  1898 ;;		Interrupt level 1
  1899 ;; This function uses a non-reentrant model
  1900 ;;
  1901                           
  1902  0004                     _interrupt_handler:	
  1903                           
  1904                           ;incstack = 0
  1905  0004  147E               	bsf	126,0	;set compiler interrupt flag (level 1)
  1906                           
  1907                           ; Regs used in _interrupt_handler: [wreg+fsr1l+fsr1h+status,2+status,0+pclath+cstack]
  1908  0005  3180               	pagesel	$
  1909                           
  1910                           ;main.c: 186:     if(INTCONbits.PEIE == 1)
  1911  0006  1F0B               	btfss	11,6	;volatile
  1912  0007  280A               	goto	i1l54
  1913                           
  1914                           ;main.c: 187:     {;main.c: 190:         SSP1_I2C_slave_handle_interrupt();
  1915  0008  3180  2020         	fcall	_SSP1_I2C_slave_handle_interrupt
  1916  000A                     i1l54:	
  1917  000A  107E               	bcf	126,0	;clear compiler interrupt flag (level 1)
  1918  000B  0009               	retfie
  1919  000C                     __end_of_interrupt_handler:	
  1920                           
  1921                           	psect	text5
  1922  0020                     __ptext5:	
  1923 ;; *************** function _SSP1_I2C_slave_handle_interrupt *****************
  1924 ;; Defined at:
  1925 ;;		line 83 in file "i2c_pic16f1614.c"
  1926 ;; Parameters:    Size  Location     Type
  1927 ;;		None
  1928 ;; Auto vars:     Size  Location     Type
  1929 ;;		None
  1930 ;; Return value:  Size  Location     Type
  1931 ;;                  1    wreg      void 
  1932 ;; Registers used:
  1933 ;;		wreg, fsr1l, fsr1h, status,2, status,0, pclath, cstack
  1934 ;; Tracked objects:
  1935 ;;		On entry : 0/0
  1936 ;;		On exit  : 0/0
  1937 ;;		Unchanged: 0/0
  1938 ;; Data sizes:     COMMON   BANK0   BANK1   BANK2   BANK3   BANK4   BANK5   BANK6
  1939 ;;      Params:         0       0       0       0       0       0       0       0
  1940 ;;      Locals:         0       0       0       0       0       0       0       0
  1941 ;;      Temps:          4       0       0       0       0       0       0       0
  1942 ;;      Totals:         4       0       0       0       0       0       0       0
  1943 ;;Total ram usage:        4 bytes
  1944 ;; Hardware stack levels used:    1
  1945 ;; Hardware stack levels required when called:    1
  1946 ;; This function calls:
  1947 ;;		_SSP1_I2C_slave_begin
  1948 ;;		_SSP1_I2C_slave_end
  1949 ;;		_SSP1_I2C_slave_read
  1950 ;;		_SSP1_I2C_slave_write
  1951 ;; This function is called by:
  1952 ;;		_interrupt_handler
  1953 ;; This function uses a non-reentrant model
  1954 ;;
  1955                           
  1956                           
  1957                           ;psect for function _SSP1_I2C_slave_handle_interrupt
  1958  0020                     _SSP1_I2C_slave_handle_interrupt:	
  1959                           
  1960                           ;i2c_pic16f1614.c: 86:     if(PIR2bits.BCL1IF == 1)
  1961                           
  1962                           ;incstack = 0
  1963                           ; Regs used in _SSP1_I2C_slave_handle_interrupt: [wreg+fsr1l+fsr1h+status,2+status,0+pcl
      +                          ath+cstack]
  1964  0020  0020               	movlb	0	; select bank0
  1965  0021  1D91               	btfss	17,3	;volatile
  1966  0022  282B               	goto	i1l954
  1967                           
  1968                           ;i2c_pic16f1614.c: 87:     {;i2c_pic16f1614.c: 89:         __SSP1_I2C_slave_null = SSP1B
      +                          UF;
  1969  0023  0024               	movlb	4	; select bank4
  1970  0024  0811               	movf	17,w	;volatile
  1971  0025  00F4               	movwf	??_SSP1_I2C_slave_handle_interrupt
  1972  0026  0874               	movf	??_SSP1_I2C_slave_handle_interrupt,w
  1973  0027  00FB               	movwf	___SSP1_I2C_slave_null
  1974                           
  1975                           ;i2c_pic16f1614.c: 92:         SSP1CON1bits.CKP = 1;
  1976  0028  1615               	bsf	21,4	;volatile
  1977                           
  1978                           ;i2c_pic16f1614.c: 95:         PIR2bits.BCL1IF = 0;
  1979  0029  0020               	movlb	0	; select bank0
  1980  002A  1191               	bcf	17,3	;volatile
  1981  002B                     i1l954:	
  1982                           
  1983                           ;i2c_pic16f1614.c: 99:     if(PIR1bits.SSP1IF == 1)
  1984  002B  1D90               	btfss	16,3	;volatile
  1985  002C  0008               	return
  1986                           
  1987                           ;i2c_pic16f1614.c: 100:     {;i2c_pic16f1614.c: 106:         if(SSP1CON1bits.SSPOV == 1 
      +                          || SSP1CON1bits.WCOL == 1)
  1988  002D  0024               	movlb	4	; select bank4
  1989  002E  1B15               	btfsc	21,6	;volatile
  1990  002F  2832               	goto	i1l960
  1991  0030  1F95               	btfss	21,7	;volatile
  1992  0031  2839               	goto	i1l120
  1993  0032                     i1l960:	
  1994                           
  1995                           ;i2c_pic16f1614.c: 107:         {;i2c_pic16f1614.c: 109:             __SSP1_I2C_slave_nu
      +                          ll = SSP1BUF;
  1996  0032  0811               	movf	17,w	;volatile
  1997  0033  00F4               	movwf	??_SSP1_I2C_slave_handle_interrupt
  1998  0034  0874               	movf	??_SSP1_I2C_slave_handle_interrupt,w
  1999  0035  00FB               	movwf	___SSP1_I2C_slave_null
  2000                           
  2001                           ;i2c_pic16f1614.c: 112:             SSP1CON1bits.SSPOV = 0;
  2002  0036  1315               	bcf	21,6	;volatile
  2003                           
  2004                           ;i2c_pic16f1614.c: 115:             SSP1CON1bits.WCOL = 0;
  2005  0037  1395               	bcf	21,7	;volatile
  2006                           
  2007                           ;i2c_pic16f1614.c: 116:         }
  2008  0038  28A4               	goto	i1l1000
  2009  0039                     i1l120:	
  2010                           ;i2c_pic16f1614.c: 118:         else if(SSP1STATbits.S == 1)
  2011                           
  2012  0039  1D94               	btfss	20,3	;volatile
  2013  003A  2893               	goto	i1l124
  2014                           
  2015                           ;i2c_pic16f1614.c: 119:         {;i2c_pic16f1614.c: 120:             if(SSP1STATbits.D_n
      +                          A == 0)
  2016  003B  1A94               	btfsc	20,5	;volatile
  2017  003C  2848               	goto	i1l125
  2018                           
  2019                           ;i2c_pic16f1614.c: 121:             {;i2c_pic16f1614.c: 127:                 __SSP1_I2C_
      +                          slave_address = SSP1BUF;
  2020  003D  0811               	movf	17,w	;volatile
  2021  003E  00F4               	movwf	??_SSP1_I2C_slave_handle_interrupt
  2022  003F  0874               	movf	??_SSP1_I2C_slave_handle_interrupt,w
  2023  0040  00FA               	movwf	___SSP1_I2C_slave_address
  2024                           
  2025                           ;i2c_pic16f1614.c: 130:                 SSP1_I2C_slave_begin(__SSP1_I2C_slave_address);
  2026  0041  087A               	movf	___SSP1_I2C_slave_address,w
  2027  0042  3181  212A  3180   	fcall	_SSP1_I2C_slave_begin
  2028                           
  2029                           ;i2c_pic16f1614.c: 133:                 __SSP1_I2C_slave_buffer_index = 0;
  2030  0045  01F8               	clrf	___SSP1_I2C_slave_buffer_index
  2031  0046  01F9               	clrf	___SSP1_I2C_slave_buffer_index+1
  2032                           
  2033                           ;i2c_pic16f1614.c: 134:             }
  2034  0047  2873               	goto	i1l984
  2035  0048                     i1l125:	
  2036                           ;i2c_pic16f1614.c: 135:             else
  2037                           
  2038                           
  2039                           ;i2c_pic16f1614.c: 136:             {;i2c_pic16f1614.c: 137:                 if(SSP1STAT
      +                          bits.R_nW == 0)
  2040  0048  1914               	btfsc	20,2	;volatile
  2041  0049  2873               	goto	i1l984
  2042                           
  2043                           ;i2c_pic16f1614.c: 138:                 {;i2c_pic16f1614.c: 140:                     if(
      +                          __SSP1_I2C_slave_buffer_index >= 256)
  2044  004A  3001               	movlw	1
  2045  004B  0279               	subwf	___SSP1_I2C_slave_buffer_index+1,w
  2046  004C  3000               	movlw	0
  2047  004D  1903               	skipnz
  2048  004E  0278               	subwf	___SSP1_I2C_slave_buffer_index,w
  2049  004F  1C03               	skipc
  2050  0050  285E               	goto	i1l980
  2051                           
  2052                           ;i2c_pic16f1614.c: 141:                     {;i2c_pic16f1614.c: 147:                    
      +                               SSP1_I2C_slave_read(__SSP1_I2C_slave_buffer_data, __SSP1_I2C_slave_buffer_index);
  2053  0051  30F0               	movlw	240
  2054  0052  00F0               	movwf	SSP1_I2C_slave_read@data
  2055  0053  3020               	movlw	32
  2056  0054  00F1               	movwf	SSP1_I2C_slave_read@data+1
  2057  0055  0879               	movf	___SSP1_I2C_slave_buffer_index+1,w
  2058  0056  00F3               	movwf	SSP1_I2C_slave_read@length+1
  2059  0057  0878               	movf	___SSP1_I2C_slave_buffer_index,w
  2060  0058  00F2               	movwf	SSP1_I2C_slave_read@length
  2061  0059  3181  212E  3180   	fcall	_SSP1_I2C_slave_read
  2062                           
  2063                           ;i2c_pic16f1614.c: 148:                         __SSP1_I2C_slave_buffer_index = 0;
  2064  005C  01F8               	clrf	___SSP1_I2C_slave_buffer_index
  2065  005D  01F9               	clrf	___SSP1_I2C_slave_buffer_index+1
  2066  005E                     i1l980:	
  2067                           
  2068                           ;i2c_pic16f1614.c: 157:                     __SSP1_I2C_slave_buffer_data[__SSP1_I2C_slav
      +                          e_buffer_index++] = SSP1BUF;
  2069  005E  30F0               	movlw	240
  2070  005F  00F4               	movwf	??_SSP1_I2C_slave_handle_interrupt
  2071  0060  3020               	movlw	32
  2072  0061  00F5               	movwf	??_SSP1_I2C_slave_handle_interrupt+1
  2073  0062  0878               	movf	___SSP1_I2C_slave_buffer_index,w
  2074  0063  0774               	addwf	??_SSP1_I2C_slave_handle_interrupt,w
  2075  0064  00F6               	movwf	??_SSP1_I2C_slave_handle_interrupt+2
  2076  0065  0879               	movf	___SSP1_I2C_slave_buffer_index+1,w
  2077  0066  3D75               	addwfc	??_SSP1_I2C_slave_handle_interrupt+1,w
  2078  0067  00F7               	movwf	??_SSP1_I2C_slave_handle_interrupt+3
  2079  0068  0876               	movf	??_SSP1_I2C_slave_handle_interrupt+2,w
  2080  0069  0086               	movwf	6
  2081  006A  0877               	movf	??_SSP1_I2C_slave_handle_interrupt+3,w
  2082  006B  0087               	movwf	7
  2083  006C  0024               	movlb	4	; select bank4
  2084  006D  0811               	movf	17,w	;volatile
  2085  006E  0081               	movwf	1
  2086  006F  3001               	movlw	1
  2087  0070  07F8               	addwf	___SSP1_I2C_slave_buffer_index,f
  2088  0071  3000               	movlw	0
  2089  0072  3DF9               	addwfc	___SSP1_I2C_slave_buffer_index+1,f
  2090  0073                     i1l984:	
  2091                           
  2092                           ;i2c_pic16f1614.c: 161:             if(SSP1STATbits.R_nW == 1)
  2093  0073  0024               	movlb	4	; select bank4
  2094  0074  1D14               	btfss	20,2	;volatile
  2095  0075  28A4               	goto	i1l1000
  2096                           
  2097                           ;i2c_pic16f1614.c: 162:             {;i2c_pic16f1614.c: 163:                 if(__SSP1_I
      +                          2C_slave_buffer_index == 0)
  2098  0076  0878               	movf	___SSP1_I2C_slave_buffer_index,w
  2099  0077  0479               	iorwf	___SSP1_I2C_slave_buffer_index+1,w
  2100  0078  1D03               	btfss	3,2
  2101  0079  2881               	goto	i1l990
  2102                           
  2103                           ;i2c_pic16f1614.c: 164:                 {;i2c_pic16f1614.c: 166:                     SSP
      +                          1_I2C_slave_write(__SSP1_I2C_slave_buffer_data);
  2104  007A  30F0               	movlw	240
  2105  007B  00F0               	movwf	SSP1_I2C_slave_write@data
  2106  007C  3020               	movlw	32
  2107  007D  00F1               	movwf	SSP1_I2C_slave_write@data+1
  2108  007E  3181  212D  3180   	fcall	_SSP1_I2C_slave_write
  2109  0081                     i1l990:	
  2110                           
  2111                           ;i2c_pic16f1614.c: 173:                 SSP1BUF = __SSP1_I2C_slave_buffer_data[__SSP1_I2
      +                          C_slave_buffer_index++];
  2112  0081  30F0               	movlw	240
  2113  0082  00F4               	movwf	??_SSP1_I2C_slave_handle_interrupt
  2114  0083  3020               	movlw	32
  2115  0084  00F5               	movwf	??_SSP1_I2C_slave_handle_interrupt+1
  2116  0085  0878               	movf	___SSP1_I2C_slave_buffer_index,w
  2117  0086  0774               	addwf	??_SSP1_I2C_slave_handle_interrupt,w
  2118  0087  0086               	movwf	6
  2119  0088  0879               	movf	___SSP1_I2C_slave_buffer_index+1,w
  2120  0089  3D75               	addwfc	??_SSP1_I2C_slave_handle_interrupt+1,w
  2121  008A  0087               	movwf	7
  2122  008B  0801               	movf	1,w
  2123  008C  0024               	movlb	4	; select bank4
  2124  008D  0091               	movwf	17	;volatile
  2125  008E  3001               	movlw	1
  2126  008F  07F8               	addwf	___SSP1_I2C_slave_buffer_index,f
  2127  0090  3000               	movlw	0
  2128  0091  3DF9               	addwfc	___SSP1_I2C_slave_buffer_index+1,f
  2129  0092  28A4               	goto	i1l1000
  2130  0093                     i1l124:	
  2131                           ;i2c_pic16f1614.c: 177:         else if(SSP1STATbits.P == 1)
  2132                           
  2133  0093  1E14               	btfss	20,4	;volatile
  2134  0094  28A4               	goto	i1l1000
  2135                           
  2136                           ;i2c_pic16f1614.c: 178:         {;i2c_pic16f1614.c: 179:             if(SSP1STATbits.R_n
      +                          W == 0)
  2137  0095  1914               	btfsc	20,2	;volatile
  2138  0096  28A2               	goto	i1l998
  2139                           
  2140                           ;i2c_pic16f1614.c: 180:             {;i2c_pic16f1614.c: 182:                 SSP1_I2C_sl
      +                          ave_read(__SSP1_I2C_slave_buffer_data, __SSP1_I2C_slave_buffer_index);
  2141  0097  30F0               	movlw	240
  2142  0098  00F0               	movwf	SSP1_I2C_slave_read@data
  2143  0099  3020               	movlw	32
  2144  009A  00F1               	movwf	SSP1_I2C_slave_read@data+1
  2145  009B  0879               	movf	___SSP1_I2C_slave_buffer_index+1,w
  2146  009C  00F3               	movwf	SSP1_I2C_slave_read@length+1
  2147  009D  0878               	movf	___SSP1_I2C_slave_buffer_index,w
  2148  009E  00F2               	movwf	SSP1_I2C_slave_read@length
  2149  009F  3181  212E  3180   	fcall	_SSP1_I2C_slave_read
  2150  00A2                     i1l998:	
  2151                           
  2152                           ;i2c_pic16f1614.c: 185:             SSP1_I2C_slave_end();
  2153  00A2  3181  2127         	fcall	_SSP1_I2C_slave_end
  2154  00A4                     i1l1000:	
  2155                           
  2156                           ;i2c_pic16f1614.c: 189:         SSP1CON1bits.CKP = 1;
  2157  00A4  0024               	movlb	4	; select bank4
  2158  00A5  1615               	bsf	21,4	;volatile
  2159                           
  2160                           ;i2c_pic16f1614.c: 193:         PIR1bits.SSP1IF = 0;
  2161  00A6  0020               	movlb	0	; select bank0
  2162  00A7  1190               	bcf	16,3	;volatile
  2163  00A8  0008               	return
  2164  00A9                     __end_of_SSP1_I2C_slave_handle_interrupt:	
  2165                           
  2166                           	psect	text6
  2167  012D                     __ptext6:	
  2168 ;; *************** function _SSP1_I2C_slave_write *****************
  2169 ;; Defined at:
  2170 ;;		line 211 in file "main.c"
  2171 ;; Parameters:    Size  Location     Type
  2172 ;;  data            2    0[COMMON] PTR unsigned char 
  2173 ;;		 -> __SSP1_I2C_slave_buffer_data(256), 
  2174 ;; Auto vars:     Size  Location     Type
  2175 ;;		None
  2176 ;; Return value:  Size  Location     Type
  2177 ;;                  1    wreg      void 
  2178 ;; Registers used:
  2179 ;;		None
  2180 ;; Tracked objects:
  2181 ;;		On entry : 0/0
  2182 ;;		On exit  : 0/0
  2183 ;;		Unchanged: 0/0
  2184 ;; Data sizes:     COMMON   BANK0   BANK1   BANK2   BANK3   BANK4   BANK5   BANK6
  2185 ;;      Params:         2       0       0       0       0       0       0       0
  2186 ;;      Locals:         0       0       0       0       0       0       0       0
  2187 ;;      Temps:          0       0       0       0       0       0       0       0
  2188 ;;      Totals:         2       0       0       0       0       0       0       0
  2189 ;;Total ram usage:        2 bytes
  2190 ;; Hardware stack levels used:    1
  2191 ;; This function calls:
  2192 ;;		Nothing
  2193 ;; This function is called by:
  2194 ;;		_SSP1_I2C_slave_handle_interrupt
  2195 ;; This function uses a non-reentrant model
  2196 ;;
  2197                           
  2198                           
  2199                           ;psect for function _SSP1_I2C_slave_write
  2200  012D                     _SSP1_I2C_slave_write:	
  2201                           
  2202                           ;incstack = 0
  2203                           ; Regs used in _SSP1_I2C_slave_write: []
  2204  012D  0008               	return
  2205  012E                     __end_of_SSP1_I2C_slave_write:	
  2206                           
  2207                           	psect	text7
  2208  012E                     __ptext7:	
  2209 ;; *************** function _SSP1_I2C_slave_read *****************
  2210 ;; Defined at:
  2211 ;;		line 205 in file "main.c"
  2212 ;; Parameters:    Size  Location     Type
  2213 ;;  data            2    0[COMMON] PTR unsigned char 
  2214 ;;		 -> __SSP1_I2C_slave_buffer_data(256), 
  2215 ;;  length          2    2[COMMON] unsigned int 
  2216 ;; Auto vars:     Size  Location     Type
  2217 ;;		None
  2218 ;; Return value:  Size  Location     Type
  2219 ;;                  1    wreg      void 
  2220 ;; Registers used:
  2221 ;;		None
  2222 ;; Tracked objects:
  2223 ;;		On entry : 0/0
  2224 ;;		On exit  : 0/0
  2225 ;;		Unchanged: 0/0
  2226 ;; Data sizes:     COMMON   BANK0   BANK1   BANK2   BANK3   BANK4   BANK5   BANK6
  2227 ;;      Params:         4       0       0       0       0       0       0       0
  2228 ;;      Locals:         0       0       0       0       0       0       0       0
  2229 ;;      Temps:          0       0       0       0       0       0       0       0
  2230 ;;      Totals:         4       0       0       0       0       0       0       0
  2231 ;;Total ram usage:        4 bytes
  2232 ;; Hardware stack levels used:    1
  2233 ;; This function calls:
  2234 ;;		Nothing
  2235 ;; This function is called by:
  2236 ;;		_SSP1_I2C_slave_handle_interrupt
  2237 ;; This function uses a non-reentrant model
  2238 ;;
  2239                           
  2240                           
  2241                           ;psect for function _SSP1_I2C_slave_read
  2242  012E                     _SSP1_I2C_slave_read:	
  2243                           
  2244                           ;incstack = 0
  2245                           ; Regs used in _SSP1_I2C_slave_read: []
  2246  012E  0008               	return
  2247  012F                     __end_of_SSP1_I2C_slave_read:	
  2248                           
  2249                           	psect	text8
  2250  0127                     __ptext8:	
  2251 ;; *************** function _SSP1_I2C_slave_end *****************
  2252 ;; Defined at:
  2253 ;;		line 216 in file "main.c"
  2254 ;; Parameters:    Size  Location     Type
  2255 ;;		None
  2256 ;; Auto vars:     Size  Location     Type
  2257 ;;		None
  2258 ;; Return value:  Size  Location     Type
  2259 ;;                  1    wreg      void 
  2260 ;; Registers used:
  2261 ;;		None
  2262 ;; Tracked objects:
  2263 ;;		On entry : 0/0
  2264 ;;		On exit  : 0/0
  2265 ;;		Unchanged: 0/0
  2266 ;; Data sizes:     COMMON   BANK0   BANK1   BANK2   BANK3   BANK4   BANK5   BANK6
  2267 ;;      Params:         0       0       0       0       0       0       0       0
  2268 ;;      Locals:         0       0       0       0       0       0       0       0
  2269 ;;      Temps:          0       0       0       0       0       0       0       0
  2270 ;;      Totals:         0       0       0       0       0       0       0       0
  2271 ;;Total ram usage:        0 bytes
  2272 ;; Hardware stack levels used:    1
  2273 ;; This function calls:
  2274 ;;		Nothing
  2275 ;; This function is called by:
  2276 ;;		_SSP1_I2C_slave_handle_interrupt
  2277 ;; This function uses a non-reentrant model
  2278 ;;
  2279                           
  2280                           
  2281                           ;psect for function _SSP1_I2C_slave_end
  2282  0127                     _SSP1_I2C_slave_end:	
  2283                           
  2284                           ;main.c: 220:     PORTCbits.RC2 = 0;
  2285                           
  2286                           ;incstack = 0
  2287                           ; Regs used in _SSP1_I2C_slave_end: []
  2288  0127  0020               	movlb	0	; select bank0
  2289  0128  110E               	bcf	14,2	;volatile
  2290  0129  0008               	return
  2291  012A                     __end_of_SSP1_I2C_slave_end:	
  2292                           
  2293                           	psect	text9
  2294  012A                     __ptext9:	
  2295 ;; *************** function _SSP1_I2C_slave_begin *****************
  2296 ;; Defined at:
  2297 ;;		line 195 in file "main.c"
  2298 ;; Parameters:    Size  Location     Type
  2299 ;;  address         1    wreg     unsigned char 
  2300 ;; Auto vars:     Size  Location     Type
  2301 ;;  address         1    0[COMMON] unsigned char 
  2302 ;; Return value:  Size  Location     Type
  2303 ;;                  1    wreg      void 
  2304 ;; Registers used:
  2305 ;;		wreg
  2306 ;; Tracked objects:
  2307 ;;		On entry : 0/0
  2308 ;;		On exit  : 0/0
  2309 ;;		Unchanged: 0/0
  2310 ;; Data sizes:     COMMON   BANK0   BANK1   BANK2   BANK3   BANK4   BANK5   BANK6
  2311 ;;      Params:         0       0       0       0       0       0       0       0
  2312 ;;      Locals:         0       0       0       0       0       0       0       0
  2313 ;;      Temps:          0       0       0       0       0       0       0       0
  2314 ;;      Totals:         0       0       0       0       0       0       0       0
  2315 ;;Total ram usage:        0 bytes
  2316 ;; Hardware stack levels used:    1
  2317 ;; This function calls:
  2318 ;;		Nothing
  2319 ;; This function is called by:
  2320 ;;		_SSP1_I2C_slave_handle_interrupt
  2321 ;; This function uses a non-reentrant model
  2322 ;;
  2323                           
  2324                           
  2325                           ;psect for function _SSP1_I2C_slave_begin
  2326  012A                     _SSP1_I2C_slave_begin:	
  2327                           
  2328                           ;main.c: 195: void SSP1_I2C_slave_begin(unsigned char address);main.c: 196: {;main.c: 20
      +                          1:     PORTCbits.RC2 = 1;
  2329                           
  2330                           ;incstack = 0
  2331                           ; Regs used in _SSP1_I2C_slave_begin: [wreg]
  2332  012A  0020               	movlb	0	; select bank0
  2333  012B  150E               	bsf	14,2	;volatile
  2334  012C  0008               	return
  2335  012D                     __end_of_SSP1_I2C_slave_begin:	
  2336  007E                     btemp	set	126	;btemp
  2337  007E                     int$flags	set	126
  2338  007E                     wtemp0	set	126


Data Sizes:
    Strings     0
    Constant    0
    Data        0
    BSS         4
    Persistent  32
    Stack       0

Auto Spaces:
    Space          Size  Autos    Used
    COMMON           14      8      12
    BANK0            80      1       1
    BANK1            80      0       0
    BANK2            80      0       0
    BANK3             0      0       0
    BANK4             0      0       0
    BANK5             0      0       0
    BANK6             0      0       0

Pointer List with Targets:

    SSP1_I2C_slave_write@data	PTR unsigned char  size(2) Largest target is 256
		 -> __SSP1_I2C_slave_buffer_data(BIGRAM[256]), 

    SSP1_I2C_slave_read@data	PTR unsigned char  size(2) Largest target is 256
		 -> __SSP1_I2C_slave_buffer_data(BIGRAM[256]), 


Critical Paths under _main in COMMON

    None.

Critical Paths under _interrupt_handler in COMMON

    _interrupt_handler->_SSP1_I2C_slave_handle_interrupt
    _SSP1_I2C_slave_handle_interrupt->_SSP1_I2C_slave_read

Critical Paths under _main in BANK0

    _main->_SSP1_I2C_slave_init

Critical Paths under _interrupt_handler in BANK0

    None.

Critical Paths under _main in BANK1

    None.

Critical Paths under _interrupt_handler in BANK1

    None.

Critical Paths under _main in BANK2

    None.

Critical Paths under _interrupt_handler in BANK2

    None.

Critical Paths under _main in BANK3

    None.

Critical Paths under _interrupt_handler in BANK3

    None.

Critical Paths under _main in BANK4

    None.

Critical Paths under _interrupt_handler in BANK4

    None.

Critical Paths under _main in BANK5

    None.

Critical Paths under _interrupt_handler in BANK5

    None.

Critical Paths under _main in BANK6

    None.

Critical Paths under _interrupt_handler in BANK6

    None.

Call Graph Tables:

 ---------------------------------------------------------------------------------
 (Depth) Function   	        Calls       Base Space   Used Autos Params    Refs
 ---------------------------------------------------------------------------------
 (0) _main                                                 0     0      0      22
                _SSP1_I2C_slave_init
                        _intosc_init
                          _pins_init
 ---------------------------------------------------------------------------------
 (1) _pins_init                                            0     0      0       0
 ---------------------------------------------------------------------------------
 (1) _intosc_init                                          0     0      0       0
 ---------------------------------------------------------------------------------
 (1) _SSP1_I2C_slave_init                                  1     1      0      22
                                              0 BANK0      1     1      0
 ---------------------------------------------------------------------------------
 Estimated maximum stack depth 1
 ---------------------------------------------------------------------------------
 (Depth) Function   	        Calls       Base Space   Used Autos Params    Refs
 ---------------------------------------------------------------------------------
 (2) _interrupt_handler                                    0     0      0     380
    _SSP1_I2C_slave_handle_interrupt
 ---------------------------------------------------------------------------------
 (3) _SSP1_I2C_slave_handle_interrupt                      4     4      0     380
                                              4 COMMON     4     4      0
               _SSP1_I2C_slave_begin
                 _SSP1_I2C_slave_end
                _SSP1_I2C_slave_read
               _SSP1_I2C_slave_write
 ---------------------------------------------------------------------------------
 (4) _SSP1_I2C_slave_write                                 2     0      2      76
                                              0 COMMON     2     0      2
 ---------------------------------------------------------------------------------
 (4) _SSP1_I2C_slave_read                                  4     0      4     304
                                              0 COMMON     4     0      4
 ---------------------------------------------------------------------------------
 (4) _SSP1_I2C_slave_end                                   0     0      0       0
 ---------------------------------------------------------------------------------
 (4) _SSP1_I2C_slave_begin                                 1     1      0       0
 ---------------------------------------------------------------------------------
 Estimated maximum stack depth 4
 ---------------------------------------------------------------------------------

 Call Graph Graphs:

 _main (ROOT)
   _SSP1_I2C_slave_init
   _intosc_init
   _pins_init

 _interrupt_handler (ROOT)
   _SSP1_I2C_slave_handle_interrupt
     _SSP1_I2C_slave_begin
     _SSP1_I2C_slave_end
     _SSP1_I2C_slave_read
     _SSP1_I2C_slave_write

 Address spaces:
Name               Size   Autos  Total    Cost      Usage
BIGRAM             1F0      0       0       0        0.0%
NULL                 0      0       0       0        0.0%
CODE                 0      0       0       0        0.0%
BITCOMMON            E      0       0       1        0.0%
BITSFR0              0      0       0       1        0.0%
SFR0                 0      0       0       1        0.0%
COMMON               E      8       C       2       85.7%
BITSFR1              0      0       0       2        0.0%
SFR1                 0      0       0       2        0.0%
BITSFR2              0      0       0       3        0.0%
SFR2                 0      0       0       3        0.0%
STACK                0      0       0       3        0.0%
BITSFR3              0      0       0       4        0.0%
SFR3                 0      0       0       4        0.0%
ABS                  0      0       D       4        0.0%
BITBANK0            50      0       0       5        0.0%
BITSFR4              0      0       0       5        0.0%
SFR4                 0      0       0       5        0.0%
BANK0               50      1       1       6        1.2%
BITSFR5              0      0       0       6        0.0%
SFR5                 0      0       0       6        0.0%
BITBANK1            50      0       0       7        0.0%
BITSFR6              0      0       0       7        0.0%
SFR6                 0      0       0       7        0.0%
BANK1               50      0       0       8        0.0%
BITSFR7              0      0       0       8        0.0%
SFR7                 0      0       0       8        0.0%
BITBANK2            50      0       0       9        0.0%
BITSFR8              0      0       0       9        0.0%
SFR8                 0      0       0       9        0.0%
BANK2               50      0       0      10        0.0%
BITSFR9              0      0       0      10        0.0%
SFR9                 0      0       0      10        0.0%
BITBANK3            50      0       0      11        0.0%
BITSFR10             0      0       0      11        0.0%
SFR10                0      0       0      11        0.0%
BITSFR11             0      0       0      12        0.0%
SFR11                0      0       0      12        0.0%
BANK3                0      0       0      12        0.0%
BITBANK4            50      0       0      13        0.0%
BITSFR12             0      0       0      13        0.0%
SFR12                0      0       0      13        0.0%
BITSFR13             0      0       0      14        0.0%
SFR13                0      0       0      14        0.0%
BANK4                0      0       0      14        0.0%
BITBANK5            50      0       0      15        0.0%
BITSFR14             0      0       0      15        0.0%
SFR14                0      0       0      15        0.0%
BITSFR15             0      0       0      16        0.0%
SFR15                0      0       0      16        0.0%
BANK5                0      0       0      16        0.0%
BITBANK6            10      0       0      17        0.0%
BITSFR16             0      0       0      17        0.0%
SFR16                0      0       0      17        0.0%
BITSFR17             0      0       0      18        0.0%
SFR17                0      0       0      18        0.0%
BANK6                0      0       0      18        0.0%
BITSFR18             0      0       0      19        0.0%
SFR18                0      0       0      19        0.0%
DATA                 0      0       D      19        0.0%
BITSFR19             0      0       0      20        0.0%
SFR19                0      0       0      20        0.0%
BITSFR20             0      0       0      21        0.0%
SFR20                0      0       0      21        0.0%
BITSFR21             0      0       0      22        0.0%
SFR21                0      0       0      22        0.0%
BITSFR22             0      0       0      23        0.0%
SFR22                0      0       0      23        0.0%
BITSFR23             0      0       0      24        0.0%
SFR23                0      0       0      24        0.0%
BITSFR24             0      0       0      25        0.0%
SFR24                0      0       0      25        0.0%
BITSFR25             0      0       0      26        0.0%
SFR25                0      0       0      26        0.0%
BITSFR26             0      0       0      27        0.0%
SFR26                0      0       0      27        0.0%
BITSFR27             0      0       0      28        0.0%
SFR27                0      0       0      28        0.0%
BITSFR28             0      0       0      29        0.0%
SFR28                0      0       0      29        0.0%
BITSFR29             0      0       0      30        0.0%
SFR29                0      0       0      30        0.0%
BITSFR30             0      0       0      31        0.0%
SFR30                0      0       0      31        0.0%
BITSFR31             0      0       0      32        0.0%
SFR31                0      0       0      32        0.0%


Microchip Technology PIC Macro Assembler V2.05 build -831301201 
Symbol Table                                                                                   Sun Jun 20 13:34:40 2021

               SSP1_I2C_slave_read@length 0072                                        l71 0114  
                            __CFG_LVP$OFF 0000                                      i1l54 000A  
                                    _main 0108                                      fsr0h 0005  
                                    fsr1h 0007                                      indf0 0000  
                                    fsr0l 0004                                      indf1 0001  
                                    fsr1l 0006                                      btemp 007E  
                                    start 000C              ___SSP1_I2C_slave_buffer_data 20F0  
                                   ?_main 0070                             __CFG_WDTE$OFF 0000  
                                   i1l120 0039                                     i1l124 0093  
                                   i1l125 0048                                     i1l960 0032  
                                   i1l954 002B                                     i1l980 005E  
                                   i1l990 0081                                     i1l984 0073  
                                   i1l998 00A2                   SSP1_I2C_slave_read@data 0070  
                                   status 0003                                     wtemp0 007E  
              __end_of_SSP1_I2C_slave_end 012A                            __CFG_MCLRE$OFF 0000  
                         __initialization 000E                              __end_of_main 0115  
                            ?_intosc_init 0070                            __CFG_LPBOR$OFF 0000  
                                  ??_main 0021                                    _RC0PPS 0EA0  
                                  _RC1PPS 0EA1                                    i1l1000 00A4  
           __size_of_SSP1_I2C_slave_begin 0003             __size_of_SSP1_I2C_slave_write 0001  
             __end_of_SSP1_I2C_slave_init 0108               __end_of_SSP1_I2C_slave_read 012F  
                 __end_of__initialization 001C                            __pcstackCOMMON 0070  
 __end_of_SSP1_I2C_slave_handle_interrupt 00A9  __size_of_SSP1_I2C_slave_handle_interrupt 0089  
       ??_SSP1_I2C_slave_handle_interrupt 0074          ?_SSP1_I2C_slave_handle_interrupt 0070  
         _SSP1_I2C_slave_handle_interrupt 0020                                __pmaintext 0108  
                              __pintentry 0004                  SSP1_I2C_slave_write@data 0070  
                      __size_of_pins_init 0040                      __size_of_intosc_init 0006  
                                 _SSP1ADD 0212                                   _SSP1BUF 0211  
                                 _SSP1MSK 0213                        _SSP1_I2C_slave_end 0127  
                                 __ptext0 0000                                   __ptext1 00A9  
                                 __ptext2 0121                                   __ptext3 00E9  
                                 __ptext5 0020                                   __ptext6 012D  
                                 __ptext7 012E                                   __ptext8 0127  
                                 __ptext9 012A                       ?_SSP1_I2C_slave_end 0070  
                                 clrloop0 0116                      end_of_initialization 001C  
                       __end_of_pins_init 00E9                      ??_SSP1_I2C_slave_end 0070  
            __end_of_SSP1_I2C_slave_begin 012D                                 _PORTAbits 000C  
                               _PORTCbits 000E                                 _SSPDATPPS 0E21  
                               _SSPCLKPPS 0E20              __end_of_SSP1_I2C_slave_write 012E  
                        __CFG_FOSC$INTOSC 0000                                 _TRISAbits 008C  
                               _TRISCbits 008E                       start_initialization 000E  
            __size_of_SSP1_I2C_slave_init 001F              __size_of_SSP1_I2C_slave_read 0001  
                             __pbssBIGRAM 20F0                               __pbssCOMMON 0078  
                               ___latbits 0001                             __pcstackBANK0 0020  
                    _SSP1_I2C_slave_begin 012A                      _SSP1_I2C_slave_write 012D  
                           ??_intosc_init 0020                         _interrupt_handler 0004  
                      ?_interrupt_handler 0070                       ??_interrupt_handler 0078  
                   ?_SSP1_I2C_slave_begin 0070                                 clear_ram0 0115  
                                _PIE1bits 0090                                  _PIE2bits 0091  
                   ?_SSP1_I2C_slave_write 0070                                 _pins_init 00A9  
                                _PIR1bits 0010                                  _PIR2bits 0011  
               __end_of_interrupt_handler 000C             ___SSP1_I2C_slave_buffer_index 0078  
                     __end_of_intosc_init 0127                                  _WPUAbits 020C  
                                _WPUCbits 020E                  ___SSP1_I2C_slave_address 007A  
             SSP1_I2C_slave_begin@address 0070                                ?_pins_init 0070  
             __size_of_SSP1_I2C_slave_end 0003                                _ANSELAbits 018C  
                              _ANSELCbits 018E                       _SSP1_I2C_slave_init 00E9  
                     _SSP1_I2C_slave_read 012E                              _SSP1CON1bits 0215  
                            _SSP1CON2bits 0216                              _SSP1CON3bits 0217  
                  ??_SSP1_I2C_slave_begin 0070                             __size_of_main 000D  
                  ??_SSP1_I2C_slave_write 0072                      ?_SSP1_I2C_slave_init 0070  
                    ?_SSP1_I2C_slave_read 0070                                  int$flags 007E  
                              _ODCONCbits 028E                               _intosc_init 0121  
                            _SSP1STATbits 0214                __size_of_interrupt_handler 0008  
                              _INTCONbits 000B                                  intlevel1 0000  
                   ??_SSP1_I2C_slave_init 0020                     ??_SSP1_I2C_slave_read 0074  
                             ??_pins_init 0020                                _OSCCONbits 0099  
                   ___SSP1_I2C_slave_null 007B                SSP1_I2C_slave_init@address 0020  
